   22000       20        M 0x18020000 auipc t0, 0                    #; (wrb) t0  <-- 0x18020000
   35000       33        M 0x18020004 addi t0, t0, 32                #; t0  = 0x18020000, (wrb) t0  <-- 0x18020020
   48000       46        M 0x18020008 csrw mtvec, t0                 #; t0  = 0x18020020
   61000       59        M 0x1802000c csrsi mstatus, 8               #; mstatus = 0x80006000
   76000       74        M 0x18020010 lui t0, 128                    #; (wrb) t0  <-- 0x00080000
   89000       87        M 0x18020014 addi t0, t0, 8                 #; t0  = 0x00080000, (wrb) t0  <-- 0x00080008
  102000      100        M 0x18020018 csrw mie, t0                   #; t0  = 0x00080008
  115000      113        M 0x1802001c wfi                            #; 
  323000      321        M 0x18020020 auipc t0, 0                    #; exception, goto 0x18020020
  336000      334        M 0x18020020 auipc t0, 0                    #; (wrb) t0  <-- 0x18020020
  349000      347        M 0x18020024 lui t1, 1                      #; (wrb) t1  <-- 4096
  362000      360        M 0x18020028 addi t1, t1, 360               #; t1  = 4096, (wrb) t1  <-- 4456
  377000      375        M 0x1802002c add t0, t0, t1                 #; t0  = 0x18020020, t1  = 4456, (wrb) t0  <-- 0x18021188
  390000      388        M 0x18020030 lw t0, 0(t0)                   #; t0  = 0x18021188, t0  <~~ Word[0x18021188]
  397000      395        M                                           #; (lsu) t0  <-- 0x80000000
  403000      401        M 0x18020034 jalr t0                        #; t0  = 0x80000000, (wrb) ra  <-- 0x18020038, goto 0x80000000
  417000      415        M 0x80000000 li t0, 0                       #; (wrb) t0  <-- 0
  418000      416        M 0x80000004 li t1, 0                       #; (wrb) t1  <-- 0
  419000      417        M 0x80000008 li t2, 0                       #; (wrb) t2  <-- 0
  420000      418        M 0x8000000c li t3, 0                       #; (wrb) t3  <-- 0
  421000      419        M 0x80000010 li t4, 0                       #; (wrb) t4  <-- 0
  422000      420        M 0x80000014 li t5, 0                       #; (wrb) t5  <-- 0
  423000      421        M 0x80000018 li t6, 0                       #; (wrb) t6  <-- 0
  424000      422        M 0x8000001c li a0, 0                       #; (wrb) a0  <-- 0
  425000      423        M 0x80000020 li a1, 0                       #; (wrb) a1  <-- 0
  426000      424        M 0x80000024 li a2, 0                       #; (wrb) a2  <-- 0
  427000      425        M 0x80000028 li a3, 0                       #; (wrb) a3  <-- 0
  428000      426        M 0x8000002c li a4, 0                       #; (wrb) a4  <-- 0
  429000      427        M 0x80000030 li a5, 0                       #; (wrb) a5  <-- 0
  430000      428        M 0x80000034 li a6, 0                       #; (wrb) a6  <-- 0
  431000      429        M 0x80000038 li a7, 0                       #; (wrb) a7  <-- 0
  432000      430        M 0x8000003c li s0, 0                       #; (wrb) s0  <-- 0
  433000      431        M 0x80000040 li s1, 0                       #; (wrb) s1  <-- 0
  434000      432        M 0x80000044 li s2, 0                       #; (wrb) s2  <-- 0
  435000      433        M 0x80000048 li s3, 0                       #; (wrb) s3  <-- 0
  436000      434        M 0x8000004c li s4, 0                       #; (wrb) s4  <-- 0
  437000      435        M 0x80000050 li s5, 0                       #; (wrb) s5  <-- 0
  438000      436        M 0x80000054 li s6, 0                       #; (wrb) s6  <-- 0
  439000      437        M 0x80000058 li s7, 0                       #; (wrb) s7  <-- 0
  440000      438        M 0x8000005c li s8, 0                       #; (wrb) s8  <-- 0
  441000      439        M 0x80000060 li s9, 0                       #; (wrb) s9  <-- 0
  442000      440        M 0x80000064 li s10, 0                      #; (wrb) s10 <-- 0
  443000      441        M 0x80000068 li s11, 0                      #; (wrb) s11 <-- 0
  444000      442        M 0x8000006c csrr t0, misa                  #; misa = 0x40801129, (wrb) t0  <-- 0x40801129
  445000      443        M 0x80000070 andi t0, t0, 40                #; t0  = 0x40801129, (wrb) t0  <-- 40
  446000      444        M 0x80000074 beqz t0, 132                   #; t0  = 40, not taken
  448000      446        M 0x80000078 fcvt.d.w ft0, zero             #; ac1  = 0
  449000      447        M 0x8000007c fcvt.d.w ft1, zero             #; ac1  = 0
  450000      448        M 0x80000080 fcvt.d.w ft2, zero             #; ac1  = 0, (f:fpu) ft0  <-- 0.0
  451000      449        M 0x80000084 fcvt.d.w ft3, zero             #; ac1  = 0, (f:fpu) ft1  <-- 0.0
  452000      450        M 0x80000088 fcvt.d.w ft4, zero             #; ac1  = 0, (f:fpu) ft2  <-- 0.0
  453000      451        M 0x8000008c fcvt.d.w ft5, zero             #; ac1  = 0, (f:fpu) ft3  <-- 0.0
  454000      452        M 0x80000090 fcvt.d.w ft6, zero             #; ac1  = 0, (f:fpu) ft4  <-- 0.0
  455000      453        M 0x80000094 fcvt.d.w ft7, zero             #; ac1  = 0, (f:fpu) ft5  <-- 0.0
  456000      454        M 0x80000098 fcvt.d.w fs0, zero             #; ac1  = 0, (f:fpu) ft6  <-- 0.0
  457000      455        M 0x8000009c fcvt.d.w fs1, zero             #; ac1  = 0, (f:fpu) ft7  <-- 0.0
  458000      456        M 0x800000a0 fcvt.d.w fa0, zero             #; ac1  = 0, (f:fpu) fs0  <-- 0.0
  459000      457        M 0x800000a4 fcvt.d.w fa1, zero             #; ac1  = 0, (f:fpu) fs1  <-- 0.0
  460000      458        M 0x800000a8 fcvt.d.w fa2, zero             #; ac1  = 0, (f:fpu) fa0  <-- 0.0
  461000      459        M 0x800000ac fcvt.d.w fa3, zero             #; ac1  = 0, (f:fpu) fa1  <-- 0.0
  462000      460        M 0x800000b0 fcvt.d.w fa4, zero             #; ac1  = 0, (f:fpu) fa2  <-- 0.0
  463000      461        M 0x800000b4 fcvt.d.w fa5, zero             #; ac1  = 0, (f:fpu) fa3  <-- 0.0
  464000      462        M 0x800000b8 fcvt.d.w fa6, zero             #; ac1  = 0, (f:fpu) fa4  <-- 0.0
  465000      463        M 0x800000bc fcvt.d.w fa7, zero             #; ac1  = 0, (f:fpu) fa5  <-- 0.0
  466000      464        M 0x800000c0 fcvt.d.w fs2, zero             #; ac1  = 0, (f:fpu) fa6  <-- 0.0
  467000      465        M 0x800000c4 fcvt.d.w fs3, zero             #; ac1  = 0, (f:fpu) fa7  <-- 0.0
  468000      466        M 0x800000c8 fcvt.d.w fs4, zero             #; ac1  = 0, (f:fpu) fs2  <-- 0.0
  469000      467        M 0x800000cc fcvt.d.w fs5, zero             #; ac1  = 0, (f:fpu) fs3  <-- 0.0
  470000      468        M 0x800000d0 fcvt.d.w fs6, zero             #; ac1  = 0, (f:fpu) fs4  <-- 0.0
  471000      469        M 0x800000d4 fcvt.d.w fs7, zero             #; ac1  = 0, (f:fpu) fs5  <-- 0.0
  472000      470        M 0x800000d8 fcvt.d.w fs8, zero             #; ac1  = 0, (f:fpu) fs6  <-- 0.0
  473000      471        M 0x800000dc fcvt.d.w fs9, zero             #; ac1  = 0, (f:fpu) fs7  <-- 0.0
  474000      472        M 0x800000e0 fcvt.d.w fs10, zero            #; ac1  = 0, (f:fpu) fs8  <-- 0.0
  475000      473        M 0x800000e4 fcvt.d.w fs11, zero            #; ac1  = 0, (f:fpu) fs9  <-- 0.0
  476000      474        M 0x800000e8 fcvt.d.w ft8, zero             #; ac1  = 0, (f:fpu) fs10 <-- 0.0
  477000      475        M 0x800000ec fcvt.d.w ft9, zero             #; ac1  = 0, (f:fpu) fs11 <-- 0.0
  478000      476        M 0x800000f0 fcvt.d.w ft10, zero            #; ac1  = 0, (f:fpu) ft8  <-- 0.0
  479000      477        M 0x800000f8 auipc gp, 6                    #; (wrb) gp  <-- 0x800060f8
                         M 0x800000f4 fcvt.d.w ft11, zero            #; ac1  = 0, (f:fpu) ft9  <-- 0.0
  480000      478        M 0x800000fc addi gp, gp, 1520              #; gp  = 0x800060f8, (wrb) gp  <-- 0x800066e8
                         M                                           #; (f:fpu) ft10 <-- 0.0
  481000      479        M 0x80000100 csrr a0, mhartid               #; mhartid = 8, (wrb) a0  <-- 8
                         M                                           #; (f:fpu) ft11 <-- 0.0
  482000      480        M 0x80000104 li t0, 0                       #; (wrb) t0  <-- 0
  483000      481        M 0x80000108 sub a0, a0, t0                 #; a0  = 8, t0  = 0, (wrb) a0  <-- 8
  484000      482        M 0x8000010c li a1, 9                       #; (wrb) a1  <-- 9
  485000      483        M 0x80000110 div t0, a0, a1                 #; a0  = 8, a1  = 9
  486000      484        M 0x80000114 remu a0, a0, a1                #; a0  = 8, a1  = 9
  487000      485        M 0x80000118 lui a2, 65536                  #; (wrb) a2  <-- 0x10000000
  488000      486        M 0x8000011c li t1, 0                       #; (wrb) t1  <-- 0
  489000      487        M                                           #; (acc) t0  <-- 0
  490000      488        M 0x80000120 mul t0, t1, t0                 #; t1  = 0, t0  = 0
  492000      490        M                                           #; (acc) a0  <-- 8
  493000      491        M                                           #; (acc) t0  <-- 0
  494000      492        M 0x80000124 add a2, a2, t0                 #; a2  = 0x10000000, t0  = 0, (wrb) a2  <-- 0x10000000
  495000      493        M 0x80000128 lui t0, 32                     #; (wrb) t0  <-- 0x00020000
  496000      494        M 0x8000012c add a2, a2, t0                 #; a2  = 0x10000000, t0  = 0x00020000, (wrb) a2  <-- 0x10020000
  497000      495        M 0x80000130 auipc t0, 6                    #; (wrb) t0  <-- 0x80006130
  498000      496        M 0x80000134 addi t0, t0, -600              #; t0  = 0x80006130, (wrb) t0  <-- 0x80005ed8
  499000      497        M 0x80000138 auipc t1, 6                    #; (wrb) t1  <-- 0x80006138
  500000      498        M 0x8000013c addi t1, t1, -608              #; t1  = 0x80006138, (wrb) t1  <-- 0x80005ed8
  501000      499        M 0x80000140 sub t0, t0, t1                 #; t0  = 0x80005ed8, t1  = 0x80005ed8, (wrb) t0  <-- 0
  502000      500        M 0x80000144 sub a2, a2, t0                 #; a2  = 0x10020000, t0  = 0, (wrb) a2  <-- 0x10020000
  503000      501        M 0x80000148 auipc t0, 6                    #; (wrb) t0  <-- 0x80006148
  504000      502        M 0x8000014c addi t0, t0, -592              #; t0  = 0x80006148, (wrb) t0  <-- 0x80005ef8
  505000      503        M 0x80000150 auipc t1, 6                    #; (wrb) t1  <-- 0x80006150
  506000      504        M 0x80000154 addi t1, t1, -632              #; t1  = 0x80006150, (wrb) t1  <-- 0x80005ed8
  507000      505        M 0x80000158 sub t0, t0, t1                 #; t0  = 0x80005ef8, t1  = 0x80005ed8, (wrb) t0  <-- 32
  508000      506        M 0x8000015c sub a2, a2, t0                 #; a2  = 0x10020000, t0  = 32, (wrb) a2  <-- 0x1001ffe0
  509000      507        M 0x80000160 addi a2, a2, -8                #; a2  = 0x1001ffe0, (wrb) a2  <-- 0x1001ffd8
  510000      508        M 0x80000164 sw zero, 0(a2)                 #; a2  = 0x1001ffd8, 0 ~~> Word[0x1001ffd8]
  511000      509        M 0x80000168 slli t0, a0, 10                #; a0  = 8, (wrb) t0  <-- 8192
  512000      510        M 0x8000016c sub sp, a2, t0                 #; a2  = 0x1001ffd8, t0  = 8192, (wrb) sp  <-- 0x1001dfd8
  513000      511        M 0x80000170 slli t0, a0, 3                 #; a0  = 8, (wrb) t0  <-- 64
  514000      512        M 0x80000174 slli t1, a1, 3                 #; a1  = 9, (wrb) t1  <-- 72
  515000      513        M 0x80000178 sub sp, sp, t0                 #; sp  = 0x1001dfd8, t0  = 64, (wrb) sp  <-- 0x1001df98
  516000      514        M 0x8000017c sub a2, a2, t1                 #; a2  = 0x1001ffd8, t1  = 72, (wrb) a2  <-- 0x1001ff90
  517000      515        M 0x80000180 auipc t0, 6                    #; (wrb) t0  <-- 0x80006180
  518000      516        M 0x80000184 addi t0, t0, -748              #; t0  = 0x80006180, (wrb) t0  <-- 0x80005e94
  519000      517        M 0x80000188 auipc t1, 6                    #; (wrb) t1  <-- 0x80006188
  520000      518        M 0x8000018c addi t1, t1, -768              #; t1  = 0x80006188, (wrb) t1  <-- 0x80005e88
  521000      519        M 0x80000190 sub t0, t0, t1                 #; t0  = 0x80005e94, t1  = 0x80005e88, (wrb) t0  <-- 12
  522000      520        M 0x80000194 sub sp, sp, t0                 #; sp  = 0x1001df98, t0  = 12, (wrb) sp  <-- 0x1001df8c
  523000      521        M 0x80000198 auipc t0, 6                    #; (wrb) t0  <-- 0x80006198
  524000      522        M 0x8000019c addi t0, t0, -704              #; t0  = 0x80006198, (wrb) t0  <-- 0x80005ed8
  525000      523        M 0x800001a0 auipc t1, 6                    #; (wrb) t1  <-- 0x800061a0
  526000      524        M 0x800001a4 addi t1, t1, -776              #; t1  = 0x800061a0, (wrb) t1  <-- 0x80005e98
  527000      525        M 0x800001a8 sub t0, t0, t1                 #; t0  = 0x80005ed8, t1  = 0x80005e98, (wrb) t0  <-- 64
  528000      526        M 0x800001ac sub sp, sp, t0                 #; sp  = 0x1001df8c, t0  = 64, (wrb) sp  <-- 0x1001df4c
  529000      527        M 0x800001b0 andi sp, sp, -8                #; sp  = 0x1001df4c, (wrb) sp  <-- 0x1001df48
  530000      528        M 0x800001b4 mv tp, sp                      #; sp  = 0x1001df48, (wrb) tp  <-- 0x1001df48
  531000      529        M 0x800001b8 andi sp, sp, -8                #; sp  = 0x1001df48, (wrb) sp  <-- 0x1001df48
  532000      530        M 0x800001bc auipc ra, 4                    #; (wrb) ra  <-- 0x800041bc
  533000      531        M 0x800001c0 jalr -1312(ra)                 #; ra  = 0x800041bc, (wrb) ra  <-- 0x800001c4, goto 0x80003c9c
  543000      541        M 0x80003c9c addi sp, sp, -64               #; sp  = 0x1001df48, (wrb) sp  <-- 0x1001df08
  544000      542        M 0x80003ca0 sw ra, 60(sp)                  #; sp  = 0x1001df08, 0x800001c4 ~~> Word[0x1001df44]
  545000      543        M 0x80003ca4 sw s0, 56(sp)                  #; sp  = 0x1001df08, 0 ~~> Word[0x1001df40]
  546000      544        M 0x80003ca8 sw s1, 52(sp)                  #; sp  = 0x1001df08, 0 ~~> Word[0x1001df3c]
  547000      545        M 0x80003cac sw s2, 48(sp)                  #; sp  = 0x1001df08, 0 ~~> Word[0x1001df38]
  548000      546        M 0x80003cb0 sw s3, 44(sp)                  #; sp  = 0x1001df08, 0 ~~> Word[0x1001df34]
  549000      547        M 0x80003cb4 sw s4, 40(sp)                  #; sp  = 0x1001df08, 0 ~~> Word[0x1001df30]
  550000      548        M 0x80003cb8 sw s5, 36(sp)                  #; sp  = 0x1001df08, 0 ~~> Word[0x1001df2c]
  551000      549        M 0x80003cbc sw s6, 32(sp)                  #; sp  = 0x1001df08, 0 ~~> Word[0x1001df28]
  556000      554        M 0x80003cc0 sw s7, 28(sp)                  #; sp  = 0x1001df08, 0 ~~> Word[0x1001df24]
  557000      555        M 0x80003cc4 sw s8, 24(sp)                  #; sp  = 0x1001df08, 0 ~~> Word[0x1001df20]
  558000      556        M 0x80003cc8 sw s9, 20(sp)                  #; sp  = 0x1001df08, 0 ~~> Word[0x1001df1c]
  559000      557        M 0x80003ccc sw s10, 16(sp)                 #; sp  = 0x1001df08, 0 ~~> Word[0x1001df18]
  560000      558        M 0x80003cd0 sw s11, 12(sp)                 #; sp  = 0x1001df08, 0 ~~> Word[0x1001df14]
  561000      559        M 0x80003cd4 li s0, -1                      #; (wrb) s0  <-- -1
  562000      560        M 0x80003cd8 csrr s2, mhartid               #; mhartid = 8, (wrb) s2  <-- 8
  563000      561        M 0x80003cdc lui a0, 233017                 #; (wrb) a0  <-- 0x38e39000
  564000      562        M 0x80003ce0 addi a0, a0, -455              #; a0  = 0x38e39000, (wrb) a0  <-- 0x38e38e39
  565000      563        M 0x80003ce4 mulhu a0, s2, a0               #; s2  = 8, a0  = 0x38e38e39
  567000      565        M                                           #; (acc) a0  <-- 1
  568000      566        M 0x80003ce8 srli a0, a0, 1                 #; a0  = 1, (wrb) a0  <-- 0
  569000      567        M 0x80003cec li a1, 8                       #; (wrb) a1  <-- 8
  570000      568        M 0x80003cf0 slli s3, a0, 18                #; a0  = 0, (wrb) s3  <-- 0
  571000      569        M 0x80003cf4 bltu a1, s2, 184               #; a1  = 8, s2  = 8, not taken
  572000      570        M 0x80003cf8 p.extbz s1, s2                 #; s2  = 8
  573000      571        M 0x80003cfc li a1, 57                      #; (wrb) a1  <-- 57
  574000      572        M                                           #; (acc) s1  <-- 8
  575000      573        M 0x80003d00 mul a1, s1, a1                 #; s1  = 8, a1  = 57
  577000      575        M                                           #; (acc) a1  <-- 456
  578000      576        M 0x80003d04 srli a1, a1, 9                 #; a1  = 456, (wrb) a1  <-- 0
  579000      577        M 0x80003d08 slli a2, a1, 3                 #; a1  = 0, (wrb) a2  <-- 0
  580000      578        M 0x80003d0c add a1, a2, a1                 #; a2  = 0, a1  = 0, (wrb) a1  <-- 0
  581000      579        M 0x80003d10 lui a2, 65569                  #; (wrb) a2  <-- 0x10021000
  582000      580        M 0x80003d14 addi a2, a2, 424               #; a2  = 0x10021000, (wrb) a2  <-- 0x100211a8
  583000      581        M 0x80003d18 add a2, s3, a2                 #; s3  = 0, a2  = 0x100211a8, (wrb) a2  <-- 0x100211a8
  584000      582        M 0x80003d1c lw a3, 0(a2)                   #; a2  = 0x100211a8, a3  <~~ Word[0x100211a8]
  593000      591        M                                           #; (lsu) a3  <-- 0
  594000      592        M 0x80003d20 ori a3, a2, 4                  #; a2  = 0x100211a8, (wrb) a3  <-- 0x100211ac
  595000      593        M 0x80003d24 lw a4, 0(a3)                   #; a3  = 0x100211ac, a4  <~~ Word[0x100211ac]
  596000      594        M 0x80003d28 sub a1, s2, a1                 #; s2  = 8, a1  = 0, (wrb) a1  <-- 8
  597000      595        M 0x80003d2c li a5, 1                       #; (wrb) a5  <-- 1
  598000      596        M 0x80003d30 sll a1, a5, a1                 #; a5  = 1, a1  = 8, (wrb) a1  <-- 256
  621000      619        M                                           #; (lsu) a4  <-- 0
  622000      620        M 0x80003d34 and a4, a4, s0                 #; a4  = 0, s0  = -1, (wrb) a4  <-- 0
  623000      621        M 0x80003d38 sw a4, 0(a3)                   #; a3  = 0x100211ac, 0 ~~> Word[0x100211ac]
  624000      622        M 0x80003d3c sw a1, 0(a2)                   #; a2  = 0x100211a8, 256 ~~> Word[0x100211a8]
  625000      623        M 0x80003d40 lui a1, 128                    #; (wrb) a1  <-- 0x00080000
  626000      624        M 0x80003d44 csrr a2, mip                   #; mip = 0x00080000, (wrb) a2  <-- 0x00080000
  627000      625        M 0x80003d48 and a2, a2, a1                 #; a2  = 0x00080000, a1  = 0x00080000, (wrb) a2  <-- 0x00080000
  628000      626        M 0x80003d4c bnez a2, -8                    #; a2  = 0x00080000, taken, goto 0x80003d44
  629000      627        M 0x80003d44 csrr a2, mip                   #; mip = 0x00080000, (wrb) a2  <-- 0x00080000
  630000      628        M 0x80003d48 and a2, a2, a1                 #; a2  = 0x00080000, a1  = 0x00080000, (wrb) a2  <-- 0x00080000
  631000      629        M 0x80003d4c bnez a2, -8                    #; a2  = 0x00080000, taken, goto 0x80003d44
  632000      630        M 0x80003d44 csrr a2, mip                   #; mip = 0x00080000, (wrb) a2  <-- 0x00080000
  633000      631        M 0x80003d48 and a2, a2, a1                 #; a2  = 0x00080000, a1  = 0x00080000, (wrb) a2  <-- 0x00080000
  634000      632        M 0x80003d4c bnez a2, -8                    #; a2  = 0x00080000, taken, goto 0x80003d44
  635000      633        M 0x80003d44 csrr a2, mip                   #; mip = 0x00080000, (wrb) a2  <-- 0x00080000
  636000      634        M 0x80003d48 and a2, a2, a1                 #; a2  = 0x00080000, a1  = 0x00080000, (wrb) a2  <-- 0x00080000
  637000      635        M 0x80003d4c bnez a2, -8                    #; a2  = 0x00080000, taken, goto 0x80003d44
  638000      636        M 0x80003d44 csrr a2, mip                   #; mip = 0x00080000, (wrb) a2  <-- 0x00080000
  639000      637        M 0x80003d48 and a2, a2, a1                 #; a2  = 0x00080000, a1  = 0x00080000, (wrb) a2  <-- 0x00080000
  640000      638        M 0x80003d4c bnez a2, -8                    #; a2  = 0x00080000, taken, goto 0x80003d44
  641000      639        M 0x80003d44 csrr a2, mip                   #; mip = 0x00080000, (wrb) a2  <-- 0x00080000
  642000      640        M 0x80003d48 and a2, a2, a1                 #; a2  = 0x00080000, a1  = 0x00080000, (wrb) a2  <-- 0x00080000
  643000      641        M 0x80003d4c bnez a2, -8                    #; a2  = 0x00080000, taken, goto 0x80003d44
  644000      642        M 0x80003d44 csrr a2, mip                   #; mip = 0x00080000, (wrb) a2  <-- 0x00080000
  645000      643        M 0x80003d48 and a2, a2, a1                 #; a2  = 0x00080000, a1  = 0x00080000, (wrb) a2  <-- 0x00080000
  646000      644        M 0x80003d4c bnez a2, -8                    #; a2  = 0x00080000, taken, goto 0x80003d44
  647000      645        M 0x80003d44 csrr a2, mip                   #; mip = 0x00080000, (wrb) a2  <-- 0x00080000
  648000      646        M 0x80003d48 and a2, a2, a1                 #; a2  = 0x00080000, a1  = 0x00080000, (wrb) a2  <-- 0x00080000
  649000      647        M 0x80003d4c bnez a2, -8                    #; a2  = 0x00080000, taken, goto 0x80003d44
  650000      648        M 0x80003d44 csrr a2, mip                   #; mip = 0x00080000, (wrb) a2  <-- 0x00080000
  651000      649        M 0x80003d48 and a2, a2, a1                 #; a2  = 0x00080000, a1  = 0x00080000, (wrb) a2  <-- 0x00080000
  652000      650        M 0x80003d4c bnez a2, -8                    #; a2  = 0x00080000, taken, goto 0x80003d44
  653000      651        M 0x80003d44 csrr a2, mip                   #; mip = 0x00080000, (wrb) a2  <-- 0x00080000
  654000      652        M 0x80003d48 and a2, a2, a1                 #; a2  = 0x00080000, a1  = 0x00080000, (wrb) a2  <-- 0x00080000
  655000      653        M 0x80003d4c bnez a2, -8                    #; a2  = 0x00080000, taken, goto 0x80003d44
  656000      654        M 0x80003d44 csrr a2, mip                   #; mip = 0x00080000, (wrb) a2  <-- 0x00080000
  657000      655        M 0x80003d48 and a2, a2, a1                 #; a2  = 0x00080000, a1  = 0x00080000, (wrb) a2  <-- 0x00080000
  658000      656        M 0x80003d4c bnez a2, -8                    #; a2  = 0x00080000, taken, goto 0x80003d44
  659000      657        M 0x80003d44 csrr a2, mip                   #; mip = 0x00080000, (wrb) a2  <-- 0x00080000
  660000      658        M 0x80003d48 and a2, a2, a1                 #; a2  = 0x00080000, a1  = 0x00080000, (wrb) a2  <-- 0x00080000
  661000      659        M 0x80003d4c bnez a2, -8                    #; a2  = 0x00080000, taken, goto 0x80003d44
  662000      660        M 0x80003d44 csrr a2, mip                   #; mip = 0x00080000, (wrb) a2  <-- 0x00080000
  663000      661        M 0x80003d48 and a2, a2, a1                 #; a2  = 0x00080000, a1  = 0x00080000, (wrb) a2  <-- 0x00080000
  664000      662        M 0x80003d4c bnez a2, -8                    #; a2  = 0x00080000, taken, goto 0x80003d44
  665000      663        M 0x80003d44 csrr a2, mip                   #; mip = 0x00080000, (wrb) a2  <-- 0x00080000
  666000      664        M 0x80003d48 and a2, a2, a1                 #; a2  = 0x00080000, a1  = 0x00080000, (wrb) a2  <-- 0x00080000
  667000      665        M 0x80003d4c bnez a2, -8                    #; a2  = 0x00080000, taken, goto 0x80003d44
  668000      666        M 0x80003d44 csrr a2, mip                   #; mip = 0x00080000, (wrb) a2  <-- 0x00080000
  669000      667        M 0x80003d48 and a2, a2, a1                 #; a2  = 0x00080000, a1  = 0x00080000, (wrb) a2  <-- 0x00080000
  670000      668        M 0x80003d4c bnez a2, -8                    #; a2  = 0x00080000, taken, goto 0x80003d44
  671000      669        M 0x80003d44 csrr a2, mip                   #; mip = 0x00080000, (wrb) a2  <-- 0x00080000
  672000      670        M 0x80003d48 and a2, a2, a1                 #; a2  = 0x00080000, a1  = 0x00080000, (wrb) a2  <-- 0x00080000
  673000      671        M 0x80003d4c bnez a2, -8                    #; a2  = 0x00080000, taken, goto 0x80003d44
  674000      672        M 0x80003d44 csrr a2, mip                   #; mip = 0x00080000, (wrb) a2  <-- 0x00080000
  675000      673        M 0x80003d48 and a2, a2, a1                 #; a2  = 0x00080000, a1  = 0x00080000, (wrb) a2  <-- 0x00080000
  676000      674        M 0x80003d4c bnez a2, -8                    #; a2  = 0x00080000, taken, goto 0x80003d44
  677000      675        M 0x80003d44 csrr a2, mip                   #; mip = 0x00080000, (wrb) a2  <-- 0x00080000
  678000      676        M 0x80003d48 and a2, a2, a1                 #; a2  = 0x00080000, a1  = 0x00080000, (wrb) a2  <-- 0x00080000
  679000      677        M 0x80003d4c bnez a2, -8                    #; a2  = 0x00080000, taken, goto 0x80003d44
  680000      678        M 0x80003d44 csrr a2, mip                   #; mip = 0, (wrb) a2  <-- 0
  681000      679        M 0x80003d48 and a2, a2, a1                 #; a2  = 0, a1  = 0x00080000, (wrb) a2  <-- 0
  682000      680        M 0x80003d4c bnez a2, -8                    #; a2  = 0, not taken
  683000      681        M 0x80003d50 li a1, 9                       #; (wrb) a1  <-- 9
  684000      682        M 0x80003d54 bgeu s2, a1, 88                #; s2  = 8, a1  = 9, not taken
  685000      683        M 0x80003d58 auipc a0, 2                    #; (wrb) a0  <-- 0x80005d58
  686000      684        M 0x80003d5c addi a0, a0, 592               #; a0  = 0x80005d58, (wrb) a0  <-- 0x80005fa8
  687000      685        M 0x80003d60 auipc a1, 2                    #; (wrb) a1  <-- 0x80005d60
  688000      686        M 0x80003d64 addi a1, a1, 1408              #; a1  = 0x80005d60, (wrb) a1  <-- 0x800062e0
  689000      687        M 0x80003d68 sub a2, a1, a0                 #; a1  = 0x800062e0, a0  = 0x80005fa8, (wrb) a2  <-- 824
  690000      688        M 0x80003d6c li a1, 0                       #; (wrb) a1  <-- 0
  691000      689        M 0x80003d70 auipc ra, 0                    #; (wrb) ra  <-- 0x80003d70
  692000      690        M 0x80003d74 jalr 1220(ra)                  #; ra  = 0x80003d70, (wrb) ra  <-- 0x80003d78, goto 0x80004234
  700000      698        M 0x80004234 li t1, 15                      #; (wrb) t1  <-- 15
  701000      699        M 0x80004238 mv a4, a0                      #; a0  = 0x80005fa8, (wrb) a4  <-- 0x80005fa8
  702000      700        M 0x8000423c bgeu t1, a2, 60                #; t1  = 15, a2  = 824, not taken
  711000      709        M 0x80004240 andi a5, a4, 15                #; a4  = 0x80005fa8, (wrb) a5  <-- 8
  712000      710        M 0x80004244 bnez a5, 160                   #; a5  = 8, taken, goto 0x800042e4
  725000      723        M 0x800042e4 slli a3, a5, 2                 #; a5  = 8, (wrb) a3  <-- 32
  726000      724        M 0x800042e8 auipc t0, 0                    #; (wrb) t0  <-- 0x800042e8
  727000      725        M 0x800042ec add a3, a3, t0                 #; a3  = 32, t0  = 0x800042e8, (wrb) a3  <-- 0x80004308
  728000      726        M 0x800042f0 mv t0, ra                      #; ra  = 0x80003d78, (wrb) t0  <-- 0x80003d78
  729000      727        M 0x800042f4 jalr -96(a3)                   #; a3  = 0x80004308, (wrb) ra  <-- 0x800042f8, goto 0x800042a8
  750000      748        M 0x800042a8 sb a1, 7(a4)                   #; a4  = 0x80005fa8, 0 ~~> Byte[0x80005faf]
  751000      749        M 0x800042ac sb a1, 6(a4)                   #; a4  = 0x80005fa8, 0 ~~> Byte[0x80005fae]
  762000      760        M 0x800042b0 sb a1, 5(a4)                   #; a4  = 0x80005fa8, 0 ~~> Byte[0x80005fad]
  803000      801        M 0x800042b4 sb a1, 4(a4)                   #; a4  = 0x80005fa8, 0 ~~> Byte[0x80005fac]
  852000      850        M 0x800042b8 sb a1, 3(a4)                   #; a4  = 0x80005fa8, 0 ~~> Byte[0x80005fab]
  893000      891        M 0x800042bc sb a1, 2(a4)                   #; a4  = 0x80005fa8, 0 ~~> Byte[0x80005faa]
  942000      940        M 0x800042c0 sb a1, 1(a4)                   #; a4  = 0x80005fa8, 0 ~~> Byte[0x80005fa9]
  983000      981        M 0x800042c4 sb a1, 0(a4)                   #; a4  = 0x80005fa8, 0 ~~> Byte[0x80005fa8]
  984000      982        M 0x800042c8 ret                            #; ra  = 0x800042f8, goto 0x800042f8
  985000      983        M 0x800042f8 mv ra, t0                      #; t0  = 0x80003d78, (wrb) ra  <-- 0x80003d78
  986000      984        M 0x800042fc addi a5, a5, -16               #; a5  = 8, (wrb) a5  <-- -8
  987000      985        M 0x80004300 sub a4, a4, a5                 #; a4  = 0x80005fa8, a5  = -8, (wrb) a4  <-- 0x80005fb0
  988000      986        M 0x80004304 add a2, a2, a5                 #; a2  = 824, a5  = -8, (wrb) a2  <-- 816
  989000      987        M 0x80004308 bgeu t1, a2, -144              #; t1  = 15, a2  = 816, not taken
  990000      988        M 0x8000430c j -196                         #; goto 0x80004248
  991000      989        M 0x80004248 bnez a1, 132                   #; a1  = 0, not taken
  992000      990        M 0x8000424c andi a3, a2, -16               #; a2  = 816, (wrb) a3  <-- 816
  993000      991        M 0x80004250 andi a2, a2, 15                #; a2  = 816, (wrb) a2  <-- 0
  994000      992        M 0x80004254 add a3, a3, a4                 #; a3  = 816, a4  = 0x80005fb0, (wrb) a3  <-- 0x800062e0
 1032000     1030        M 0x80004258 sw a1, 0(a4)                   #; a4  = 0x80005fb0, 0 ~~> Word[0x80005fb0]
 1073000     1071        M 0x8000425c sw a1, 4(a4)                   #; a4  = 0x80005fb0, 0 ~~> Word[0x80005fb4]
 1122000     1120        M 0x80004260 sw a1, 8(a4)                   #; a4  = 0x80005fb0, 0 ~~> Word[0x80005fb8]
 1163000     1161        M 0x80004264 sw a1, 12(a4)                  #; a4  = 0x80005fb0, 0 ~~> Word[0x80005fbc]
 1164000     1162        M 0x80004268 addi a4, a4, 16                #; a4  = 0x80005fb0, (wrb) a4  <-- 0x80005fc0
 1165000     1163        M 0x8000426c bltu a4, a3, -20               #; a4  = 0x80005fc0, a3  = 0x800062e0, taken, goto 0x80004258
 1212000     1210        M 0x80004258 sw a1, 0(a4)                   #; a4  = 0x80005fc0, 0 ~~> Word[0x80005fc0]
 1253000     1251        M 0x8000425c sw a1, 4(a4)                   #; a4  = 0x80005fc0, 0 ~~> Word[0x80005fc4]
 1302000     1300        M 0x80004260 sw a1, 8(a4)                   #; a4  = 0x80005fc0, 0 ~~> Word[0x80005fc8]
 1343000     1341        M 0x80004264 sw a1, 12(a4)                  #; a4  = 0x80005fc0, 0 ~~> Word[0x80005fcc]
 1344000     1342        M 0x80004268 addi a4, a4, 16                #; a4  = 0x80005fc0, (wrb) a4  <-- 0x80005fd0
 1345000     1343        M 0x8000426c bltu a4, a3, -20               #; a4  = 0x80005fd0, a3  = 0x800062e0, taken, goto 0x80004258
 1392000     1390        M 0x80004258 sw a1, 0(a4)                   #; a4  = 0x80005fd0, 0 ~~> Word[0x80005fd0]
 1433000     1431        M 0x8000425c sw a1, 4(a4)                   #; a4  = 0x80005fd0, 0 ~~> Word[0x80005fd4]
 1482000     1480        M 0x80004260 sw a1, 8(a4)                   #; a4  = 0x80005fd0, 0 ~~> Word[0x80005fd8]
 1523000     1521        M 0x80004264 sw a1, 12(a4)                  #; a4  = 0x80005fd0, 0 ~~> Word[0x80005fdc]
 1524000     1522        M 0x80004268 addi a4, a4, 16                #; a4  = 0x80005fd0, (wrb) a4  <-- 0x80005fe0
 1525000     1523        M 0x8000426c bltu a4, a3, -20               #; a4  = 0x80005fe0, a3  = 0x800062e0, taken, goto 0x80004258
 1572000     1570        M 0x80004258 sw a1, 0(a4)                   #; a4  = 0x80005fe0, 0 ~~> Word[0x80005fe0]
 1613000     1611        M 0x8000425c sw a1, 4(a4)                   #; a4  = 0x80005fe0, 0 ~~> Word[0x80005fe4]
 1662000     1660        M 0x80004260 sw a1, 8(a4)                   #; a4  = 0x80005fe0, 0 ~~> Word[0x80005fe8]
 1703000     1701        M 0x80004264 sw a1, 12(a4)                  #; a4  = 0x80005fe0, 0 ~~> Word[0x80005fec]
 1704000     1702        M 0x80004268 addi a4, a4, 16                #; a4  = 0x80005fe0, (wrb) a4  <-- 0x80005ff0
 1705000     1703        M 0x8000426c bltu a4, a3, -20               #; a4  = 0x80005ff0, a3  = 0x800062e0, taken, goto 0x80004258
 1752000     1750        M 0x80004258 sw a1, 0(a4)                   #; a4  = 0x80005ff0, 0 ~~> Word[0x80005ff0]
 1793000     1791        M 0x8000425c sw a1, 4(a4)                   #; a4  = 0x80005ff0, 0 ~~> Word[0x80005ff4]
 1842000     1840        M 0x80004260 sw a1, 8(a4)                   #; a4  = 0x80005ff0, 0 ~~> Word[0x80005ff8]
 1883000     1881        M 0x80004264 sw a1, 12(a4)                  #; a4  = 0x80005ff0, 0 ~~> Word[0x80005ffc]
 1884000     1882        M 0x80004268 addi a4, a4, 16                #; a4  = 0x80005ff0, (wrb) a4  <-- 0x80006000
 1885000     1883        M 0x8000426c bltu a4, a3, -20               #; a4  = 0x80006000, a3  = 0x800062e0, taken, goto 0x80004258
 1932000     1930        M 0x80004258 sw a1, 0(a4)                   #; a4  = 0x80006000, 0 ~~> Word[0x80006000]
 1973000     1971        M 0x8000425c sw a1, 4(a4)                   #; a4  = 0x80006000, 0 ~~> Word[0x80006004]
 2022000     2020        M 0x80004260 sw a1, 8(a4)                   #; a4  = 0x80006000, 0 ~~> Word[0x80006008]
 2063000     2061        M 0x80004264 sw a1, 12(a4)                  #; a4  = 0x80006000, 0 ~~> Word[0x8000600c]
 2064000     2062        M 0x80004268 addi a4, a4, 16                #; a4  = 0x80006000, (wrb) a4  <-- 0x80006010
 2065000     2063        M 0x8000426c bltu a4, a3, -20               #; a4  = 0x80006010, a3  = 0x800062e0, taken, goto 0x80004258
 2112000     2110        M 0x80004258 sw a1, 0(a4)                   #; a4  = 0x80006010, 0 ~~> Word[0x80006010]
 2153000     2151        M 0x8000425c sw a1, 4(a4)                   #; a4  = 0x80006010, 0 ~~> Word[0x80006014]
 2202000     2200        M 0x80004260 sw a1, 8(a4)                   #; a4  = 0x80006010, 0 ~~> Word[0x80006018]
 2243000     2241        M 0x80004264 sw a1, 12(a4)                  #; a4  = 0x80006010, 0 ~~> Word[0x8000601c]
 2244000     2242        M 0x80004268 addi a4, a4, 16                #; a4  = 0x80006010, (wrb) a4  <-- 0x80006020
 2245000     2243        M 0x8000426c bltu a4, a3, -20               #; a4  = 0x80006020, a3  = 0x800062e0, taken, goto 0x80004258
 2292000     2290        M 0x80004258 sw a1, 0(a4)                   #; a4  = 0x80006020, 0 ~~> Word[0x80006020]
 2333000     2331        M 0x8000425c sw a1, 4(a4)                   #; a4  = 0x80006020, 0 ~~> Word[0x80006024]
 2382000     2380        M 0x80004260 sw a1, 8(a4)                   #; a4  = 0x80006020, 0 ~~> Word[0x80006028]
 2423000     2421        M 0x80004264 sw a1, 12(a4)                  #; a4  = 0x80006020, 0 ~~> Word[0x8000602c]
 2424000     2422        M 0x80004268 addi a4, a4, 16                #; a4  = 0x80006020, (wrb) a4  <-- 0x80006030
 2425000     2423        M 0x8000426c bltu a4, a3, -20               #; a4  = 0x80006030, a3  = 0x800062e0, taken, goto 0x80004258
 2472000     2470        M 0x80004258 sw a1, 0(a4)                   #; a4  = 0x80006030, 0 ~~> Word[0x80006030]
 2513000     2511        M 0x8000425c sw a1, 4(a4)                   #; a4  = 0x80006030, 0 ~~> Word[0x80006034]
 2562000     2560        M 0x80004260 sw a1, 8(a4)                   #; a4  = 0x80006030, 0 ~~> Word[0x80006038]
 2603000     2601        M 0x80004264 sw a1, 12(a4)                  #; a4  = 0x80006030, 0 ~~> Word[0x8000603c]
 2604000     2602        M 0x80004268 addi a4, a4, 16                #; a4  = 0x80006030, (wrb) a4  <-- 0x80006040
 2605000     2603        M 0x8000426c bltu a4, a3, -20               #; a4  = 0x80006040, a3  = 0x800062e0, taken, goto 0x80004258
 2652000     2650        M 0x80004258 sw a1, 0(a4)                   #; a4  = 0x80006040, 0 ~~> Word[0x80006040]
 2693000     2691        M 0x8000425c sw a1, 4(a4)                   #; a4  = 0x80006040, 0 ~~> Word[0x80006044]
 2742000     2740        M 0x80004260 sw a1, 8(a4)                   #; a4  = 0x80006040, 0 ~~> Word[0x80006048]
 2783000     2781        M 0x80004264 sw a1, 12(a4)                  #; a4  = 0x80006040, 0 ~~> Word[0x8000604c]
 2784000     2782        M 0x80004268 addi a4, a4, 16                #; a4  = 0x80006040, (wrb) a4  <-- 0x80006050
 2785000     2783        M 0x8000426c bltu a4, a3, -20               #; a4  = 0x80006050, a3  = 0x800062e0, taken, goto 0x80004258
 2832000     2830        M 0x80004258 sw a1, 0(a4)                   #; a4  = 0x80006050, 0 ~~> Word[0x80006050]
 2873000     2871        M 0x8000425c sw a1, 4(a4)                   #; a4  = 0x80006050, 0 ~~> Word[0x80006054]
 2922000     2920        M 0x80004260 sw a1, 8(a4)                   #; a4  = 0x80006050, 0 ~~> Word[0x80006058]
 2963000     2961        M 0x80004264 sw a1, 12(a4)                  #; a4  = 0x80006050, 0 ~~> Word[0x8000605c]
 2964000     2962        M 0x80004268 addi a4, a4, 16                #; a4  = 0x80006050, (wrb) a4  <-- 0x80006060
 2965000     2963        M 0x8000426c bltu a4, a3, -20               #; a4  = 0x80006060, a3  = 0x800062e0, taken, goto 0x80004258
 3012000     3010        M 0x80004258 sw a1, 0(a4)                   #; a4  = 0x80006060, 0 ~~> Word[0x80006060]
 3053000     3051        M 0x8000425c sw a1, 4(a4)                   #; a4  = 0x80006060, 0 ~~> Word[0x80006064]
 3102000     3100        M 0x80004260 sw a1, 8(a4)                   #; a4  = 0x80006060, 0 ~~> Word[0x80006068]
 3143000     3141        M 0x80004264 sw a1, 12(a4)                  #; a4  = 0x80006060, 0 ~~> Word[0x8000606c]
 3144000     3142        M 0x80004268 addi a4, a4, 16                #; a4  = 0x80006060, (wrb) a4  <-- 0x80006070
 3145000     3143        M 0x8000426c bltu a4, a3, -20               #; a4  = 0x80006070, a3  = 0x800062e0, taken, goto 0x80004258
 3192000     3190        M 0x80004258 sw a1, 0(a4)                   #; a4  = 0x80006070, 0 ~~> Word[0x80006070]
 3233000     3231        M 0x8000425c sw a1, 4(a4)                   #; a4  = 0x80006070, 0 ~~> Word[0x80006074]
 3282000     3280        M 0x80004260 sw a1, 8(a4)                   #; a4  = 0x80006070, 0 ~~> Word[0x80006078]
 3323000     3321        M 0x80004264 sw a1, 12(a4)                  #; a4  = 0x80006070, 0 ~~> Word[0x8000607c]
 3324000     3322        M 0x80004268 addi a4, a4, 16                #; a4  = 0x80006070, (wrb) a4  <-- 0x80006080
 3325000     3323        M 0x8000426c bltu a4, a3, -20               #; a4  = 0x80006080, a3  = 0x800062e0, taken, goto 0x80004258
 3372000     3370        M 0x80004258 sw a1, 0(a4)                   #; a4  = 0x80006080, 0 ~~> Word[0x80006080]
 3413000     3411        M 0x8000425c sw a1, 4(a4)                   #; a4  = 0x80006080, 0 ~~> Word[0x80006084]
 3462000     3460        M 0x80004260 sw a1, 8(a4)                   #; a4  = 0x80006080, 0 ~~> Word[0x80006088]
 3503000     3501        M 0x80004264 sw a1, 12(a4)                  #; a4  = 0x80006080, 0 ~~> Word[0x8000608c]
 3504000     3502        M 0x80004268 addi a4, a4, 16                #; a4  = 0x80006080, (wrb) a4  <-- 0x80006090
 3505000     3503        M 0x8000426c bltu a4, a3, -20               #; a4  = 0x80006090, a3  = 0x800062e0, taken, goto 0x80004258
 3552000     3550        M 0x80004258 sw a1, 0(a4)                   #; a4  = 0x80006090, 0 ~~> Word[0x80006090]
 3593000     3591        M 0x8000425c sw a1, 4(a4)                   #; a4  = 0x80006090, 0 ~~> Word[0x80006094]
 3642000     3640        M 0x80004260 sw a1, 8(a4)                   #; a4  = 0x80006090, 0 ~~> Word[0x80006098]
 3683000     3681        M 0x80004264 sw a1, 12(a4)                  #; a4  = 0x80006090, 0 ~~> Word[0x8000609c]
 3684000     3682        M 0x80004268 addi a4, a4, 16                #; a4  = 0x80006090, (wrb) a4  <-- 0x800060a0
 3685000     3683        M 0x8000426c bltu a4, a3, -20               #; a4  = 0x800060a0, a3  = 0x800062e0, taken, goto 0x80004258
 3732000     3730        M 0x80004258 sw a1, 0(a4)                   #; a4  = 0x800060a0, 0 ~~> Word[0x800060a0]
 3773000     3771        M 0x8000425c sw a1, 4(a4)                   #; a4  = 0x800060a0, 0 ~~> Word[0x800060a4]
 3822000     3820        M 0x80004260 sw a1, 8(a4)                   #; a4  = 0x800060a0, 0 ~~> Word[0x800060a8]
 3863000     3861        M 0x80004264 sw a1, 12(a4)                  #; a4  = 0x800060a0, 0 ~~> Word[0x800060ac]
 3864000     3862        M 0x80004268 addi a4, a4, 16                #; a4  = 0x800060a0, (wrb) a4  <-- 0x800060b0
 3865000     3863        M 0x8000426c bltu a4, a3, -20               #; a4  = 0x800060b0, a3  = 0x800062e0, taken, goto 0x80004258
 3912000     3910        M 0x80004258 sw a1, 0(a4)                   #; a4  = 0x800060b0, 0 ~~> Word[0x800060b0]
 3953000     3951        M 0x8000425c sw a1, 4(a4)                   #; a4  = 0x800060b0, 0 ~~> Word[0x800060b4]
 4002000     4000        M 0x80004260 sw a1, 8(a4)                   #; a4  = 0x800060b0, 0 ~~> Word[0x800060b8]
 4043000     4041        M 0x80004264 sw a1, 12(a4)                  #; a4  = 0x800060b0, 0 ~~> Word[0x800060bc]
 4044000     4042        M 0x80004268 addi a4, a4, 16                #; a4  = 0x800060b0, (wrb) a4  <-- 0x800060c0
 4045000     4043        M 0x8000426c bltu a4, a3, -20               #; a4  = 0x800060c0, a3  = 0x800062e0, taken, goto 0x80004258
 4092000     4090        M 0x80004258 sw a1, 0(a4)                   #; a4  = 0x800060c0, 0 ~~> Word[0x800060c0]
 4133000     4131        M 0x8000425c sw a1, 4(a4)                   #; a4  = 0x800060c0, 0 ~~> Word[0x800060c4]
 4182000     4180        M 0x80004260 sw a1, 8(a4)                   #; a4  = 0x800060c0, 0 ~~> Word[0x800060c8]
 4223000     4221        M 0x80004264 sw a1, 12(a4)                  #; a4  = 0x800060c0, 0 ~~> Word[0x800060cc]
 4224000     4222        M 0x80004268 addi a4, a4, 16                #; a4  = 0x800060c0, (wrb) a4  <-- 0x800060d0
 4225000     4223        M 0x8000426c bltu a4, a3, -20               #; a4  = 0x800060d0, a3  = 0x800062e0, taken, goto 0x80004258
 4272000     4270        M 0x80004258 sw a1, 0(a4)                   #; a4  = 0x800060d0, 0 ~~> Word[0x800060d0]
 4313000     4311        M 0x8000425c sw a1, 4(a4)                   #; a4  = 0x800060d0, 0 ~~> Word[0x800060d4]
 4362000     4360        M 0x80004260 sw a1, 8(a4)                   #; a4  = 0x800060d0, 0 ~~> Word[0x800060d8]
 4403000     4401        M 0x80004264 sw a1, 12(a4)                  #; a4  = 0x800060d0, 0 ~~> Word[0x800060dc]
 4404000     4402        M 0x80004268 addi a4, a4, 16                #; a4  = 0x800060d0, (wrb) a4  <-- 0x800060e0
 4405000     4403        M 0x8000426c bltu a4, a3, -20               #; a4  = 0x800060e0, a3  = 0x800062e0, taken, goto 0x80004258
 4452000     4450        M 0x80004258 sw a1, 0(a4)                   #; a4  = 0x800060e0, 0 ~~> Word[0x800060e0]
 4493000     4491        M 0x8000425c sw a1, 4(a4)                   #; a4  = 0x800060e0, 0 ~~> Word[0x800060e4]
 4542000     4540        M 0x80004260 sw a1, 8(a4)                   #; a4  = 0x800060e0, 0 ~~> Word[0x800060e8]
 4583000     4581        M 0x80004264 sw a1, 12(a4)                  #; a4  = 0x800060e0, 0 ~~> Word[0x800060ec]
 4584000     4582        M 0x80004268 addi a4, a4, 16                #; a4  = 0x800060e0, (wrb) a4  <-- 0x800060f0
 4585000     4583        M 0x8000426c bltu a4, a3, -20               #; a4  = 0x800060f0, a3  = 0x800062e0, taken, goto 0x80004258
 4632000     4630        M 0x80004258 sw a1, 0(a4)                   #; a4  = 0x800060f0, 0 ~~> Word[0x800060f0]
 4673000     4671        M 0x8000425c sw a1, 4(a4)                   #; a4  = 0x800060f0, 0 ~~> Word[0x800060f4]
 4722000     4720        M 0x80004260 sw a1, 8(a4)                   #; a4  = 0x800060f0, 0 ~~> Word[0x800060f8]
 4763000     4761        M 0x80004264 sw a1, 12(a4)                  #; a4  = 0x800060f0, 0 ~~> Word[0x800060fc]
 4764000     4762        M 0x80004268 addi a4, a4, 16                #; a4  = 0x800060f0, (wrb) a4  <-- 0x80006100
 4765000     4763        M 0x8000426c bltu a4, a3, -20               #; a4  = 0x80006100, a3  = 0x800062e0, taken, goto 0x80004258
 4812000     4810        M 0x80004258 sw a1, 0(a4)                   #; a4  = 0x80006100, 0 ~~> Word[0x80006100]
 4853000     4851        M 0x8000425c sw a1, 4(a4)                   #; a4  = 0x80006100, 0 ~~> Word[0x80006104]
 4902000     4900        M 0x80004260 sw a1, 8(a4)                   #; a4  = 0x80006100, 0 ~~> Word[0x80006108]
 4943000     4941        M 0x80004264 sw a1, 12(a4)                  #; a4  = 0x80006100, 0 ~~> Word[0x8000610c]
 4944000     4942        M 0x80004268 addi a4, a4, 16                #; a4  = 0x80006100, (wrb) a4  <-- 0x80006110
 4945000     4943        M 0x8000426c bltu a4, a3, -20               #; a4  = 0x80006110, a3  = 0x800062e0, taken, goto 0x80004258
 4992000     4990        M 0x80004258 sw a1, 0(a4)                   #; a4  = 0x80006110, 0 ~~> Word[0x80006110]
 5033000     5031        M 0x8000425c sw a1, 4(a4)                   #; a4  = 0x80006110, 0 ~~> Word[0x80006114]
 5082000     5080        M 0x80004260 sw a1, 8(a4)                   #; a4  = 0x80006110, 0 ~~> Word[0x80006118]
 5123000     5121        M 0x80004264 sw a1, 12(a4)                  #; a4  = 0x80006110, 0 ~~> Word[0x8000611c]
 5124000     5122        M 0x80004268 addi a4, a4, 16                #; a4  = 0x80006110, (wrb) a4  <-- 0x80006120
 5125000     5123        M 0x8000426c bltu a4, a3, -20               #; a4  = 0x80006120, a3  = 0x800062e0, taken, goto 0x80004258
 5172000     5170        M 0x80004258 sw a1, 0(a4)                   #; a4  = 0x80006120, 0 ~~> Word[0x80006120]
 5213000     5211        M 0x8000425c sw a1, 4(a4)                   #; a4  = 0x80006120, 0 ~~> Word[0x80006124]
 5262000     5260        M 0x80004260 sw a1, 8(a4)                   #; a4  = 0x80006120, 0 ~~> Word[0x80006128]
 5303000     5301        M 0x80004264 sw a1, 12(a4)                  #; a4  = 0x80006120, 0 ~~> Word[0x8000612c]
 5304000     5302        M 0x80004268 addi a4, a4, 16                #; a4  = 0x80006120, (wrb) a4  <-- 0x80006130
 5305000     5303        M 0x8000426c bltu a4, a3, -20               #; a4  = 0x80006130, a3  = 0x800062e0, taken, goto 0x80004258
 5352000     5350        M 0x80004258 sw a1, 0(a4)                   #; a4  = 0x80006130, 0 ~~> Word[0x80006130]
 5393000     5391        M 0x8000425c sw a1, 4(a4)                   #; a4  = 0x80006130, 0 ~~> Word[0x80006134]
 5442000     5440        M 0x80004260 sw a1, 8(a4)                   #; a4  = 0x80006130, 0 ~~> Word[0x80006138]
 5483000     5481        M 0x80004264 sw a1, 12(a4)                  #; a4  = 0x80006130, 0 ~~> Word[0x8000613c]
 5484000     5482        M 0x80004268 addi a4, a4, 16                #; a4  = 0x80006130, (wrb) a4  <-- 0x80006140
 5485000     5483        M 0x8000426c bltu a4, a3, -20               #; a4  = 0x80006140, a3  = 0x800062e0, taken, goto 0x80004258
 5532000     5530        M 0x80004258 sw a1, 0(a4)                   #; a4  = 0x80006140, 0 ~~> Word[0x80006140]
 5573000     5571        M 0x8000425c sw a1, 4(a4)                   #; a4  = 0x80006140, 0 ~~> Word[0x80006144]
 5622000     5620        M 0x80004260 sw a1, 8(a4)                   #; a4  = 0x80006140, 0 ~~> Word[0x80006148]
 5663000     5661        M 0x80004264 sw a1, 12(a4)                  #; a4  = 0x80006140, 0 ~~> Word[0x8000614c]
 5664000     5662        M 0x80004268 addi a4, a4, 16                #; a4  = 0x80006140, (wrb) a4  <-- 0x80006150
 5665000     5663        M 0x8000426c bltu a4, a3, -20               #; a4  = 0x80006150, a3  = 0x800062e0, taken, goto 0x80004258
 5712000     5710        M 0x80004258 sw a1, 0(a4)                   #; a4  = 0x80006150, 0 ~~> Word[0x80006150]
 5753000     5751        M 0x8000425c sw a1, 4(a4)                   #; a4  = 0x80006150, 0 ~~> Word[0x80006154]
 5802000     5800        M 0x80004260 sw a1, 8(a4)                   #; a4  = 0x80006150, 0 ~~> Word[0x80006158]
 5843000     5841        M 0x80004264 sw a1, 12(a4)                  #; a4  = 0x80006150, 0 ~~> Word[0x8000615c]
 5844000     5842        M 0x80004268 addi a4, a4, 16                #; a4  = 0x80006150, (wrb) a4  <-- 0x80006160
 5845000     5843        M 0x8000426c bltu a4, a3, -20               #; a4  = 0x80006160, a3  = 0x800062e0, taken, goto 0x80004258
 5892000     5890        M 0x80004258 sw a1, 0(a4)                   #; a4  = 0x80006160, 0 ~~> Word[0x80006160]
 5933000     5931        M 0x8000425c sw a1, 4(a4)                   #; a4  = 0x80006160, 0 ~~> Word[0x80006164]
 5982000     5980        M 0x80004260 sw a1, 8(a4)                   #; a4  = 0x80006160, 0 ~~> Word[0x80006168]
 6023000     6021        M 0x80004264 sw a1, 12(a4)                  #; a4  = 0x80006160, 0 ~~> Word[0x8000616c]
 6024000     6022        M 0x80004268 addi a4, a4, 16                #; a4  = 0x80006160, (wrb) a4  <-- 0x80006170
 6025000     6023        M 0x8000426c bltu a4, a3, -20               #; a4  = 0x80006170, a3  = 0x800062e0, taken, goto 0x80004258
 6072000     6070        M 0x80004258 sw a1, 0(a4)                   #; a4  = 0x80006170, 0 ~~> Word[0x80006170]
 6113000     6111        M 0x8000425c sw a1, 4(a4)                   #; a4  = 0x80006170, 0 ~~> Word[0x80006174]
 6162000     6160        M 0x80004260 sw a1, 8(a4)                   #; a4  = 0x80006170, 0 ~~> Word[0x80006178]
 6203000     6201        M 0x80004264 sw a1, 12(a4)                  #; a4  = 0x80006170, 0 ~~> Word[0x8000617c]
 6204000     6202        M 0x80004268 addi a4, a4, 16                #; a4  = 0x80006170, (wrb) a4  <-- 0x80006180
 6205000     6203        M 0x8000426c bltu a4, a3, -20               #; a4  = 0x80006180, a3  = 0x800062e0, taken, goto 0x80004258
 6252000     6250        M 0x80004258 sw a1, 0(a4)                   #; a4  = 0x80006180, 0 ~~> Word[0x80006180]
 6293000     6291        M 0x8000425c sw a1, 4(a4)                   #; a4  = 0x80006180, 0 ~~> Word[0x80006184]
 6342000     6340        M 0x80004260 sw a1, 8(a4)                   #; a4  = 0x80006180, 0 ~~> Word[0x80006188]
 6383000     6381        M 0x80004264 sw a1, 12(a4)                  #; a4  = 0x80006180, 0 ~~> Word[0x8000618c]
 6384000     6382        M 0x80004268 addi a4, a4, 16                #; a4  = 0x80006180, (wrb) a4  <-- 0x80006190
 6385000     6383        M 0x8000426c bltu a4, a3, -20               #; a4  = 0x80006190, a3  = 0x800062e0, taken, goto 0x80004258
 6432000     6430        M 0x80004258 sw a1, 0(a4)                   #; a4  = 0x80006190, 0 ~~> Word[0x80006190]
 6473000     6471        M 0x8000425c sw a1, 4(a4)                   #; a4  = 0x80006190, 0 ~~> Word[0x80006194]
 6522000     6520        M 0x80004260 sw a1, 8(a4)                   #; a4  = 0x80006190, 0 ~~> Word[0x80006198]
 6563000     6561        M 0x80004264 sw a1, 12(a4)                  #; a4  = 0x80006190, 0 ~~> Word[0x8000619c]
 6564000     6562        M 0x80004268 addi a4, a4, 16                #; a4  = 0x80006190, (wrb) a4  <-- 0x800061a0
 6565000     6563        M 0x8000426c bltu a4, a3, -20               #; a4  = 0x800061a0, a3  = 0x800062e0, taken, goto 0x80004258
 6612000     6610        M 0x80004258 sw a1, 0(a4)                   #; a4  = 0x800061a0, 0 ~~> Word[0x800061a0]
 6653000     6651        M 0x8000425c sw a1, 4(a4)                   #; a4  = 0x800061a0, 0 ~~> Word[0x800061a4]
 6702000     6700        M 0x80004260 sw a1, 8(a4)                   #; a4  = 0x800061a0, 0 ~~> Word[0x800061a8]
 6743000     6741        M 0x80004264 sw a1, 12(a4)                  #; a4  = 0x800061a0, 0 ~~> Word[0x800061ac]
 6744000     6742        M 0x80004268 addi a4, a4, 16                #; a4  = 0x800061a0, (wrb) a4  <-- 0x800061b0
 6745000     6743        M 0x8000426c bltu a4, a3, -20               #; a4  = 0x800061b0, a3  = 0x800062e0, taken, goto 0x80004258
 6792000     6790        M 0x80004258 sw a1, 0(a4)                   #; a4  = 0x800061b0, 0 ~~> Word[0x800061b0]
 6833000     6831        M 0x8000425c sw a1, 4(a4)                   #; a4  = 0x800061b0, 0 ~~> Word[0x800061b4]
 6882000     6880        M 0x80004260 sw a1, 8(a4)                   #; a4  = 0x800061b0, 0 ~~> Word[0x800061b8]
 6923000     6921        M 0x80004264 sw a1, 12(a4)                  #; a4  = 0x800061b0, 0 ~~> Word[0x800061bc]
 6924000     6922        M 0x80004268 addi a4, a4, 16                #; a4  = 0x800061b0, (wrb) a4  <-- 0x800061c0
 6925000     6923        M 0x8000426c bltu a4, a3, -20               #; a4  = 0x800061c0, a3  = 0x800062e0, taken, goto 0x80004258
 6972000     6970        M 0x80004258 sw a1, 0(a4)                   #; a4  = 0x800061c0, 0 ~~> Word[0x800061c0]
 7013000     7011        M 0x8000425c sw a1, 4(a4)                   #; a4  = 0x800061c0, 0 ~~> Word[0x800061c4]
 7062000     7060        M 0x80004260 sw a1, 8(a4)                   #; a4  = 0x800061c0, 0 ~~> Word[0x800061c8]
 7103000     7101        M 0x80004264 sw a1, 12(a4)                  #; a4  = 0x800061c0, 0 ~~> Word[0x800061cc]
 7104000     7102        M 0x80004268 addi a4, a4, 16                #; a4  = 0x800061c0, (wrb) a4  <-- 0x800061d0
 7105000     7103        M 0x8000426c bltu a4, a3, -20               #; a4  = 0x800061d0, a3  = 0x800062e0, taken, goto 0x80004258
 7152000     7150        M 0x80004258 sw a1, 0(a4)                   #; a4  = 0x800061d0, 0 ~~> Word[0x800061d0]
 7193000     7191        M 0x8000425c sw a1, 4(a4)                   #; a4  = 0x800061d0, 0 ~~> Word[0x800061d4]
 7242000     7240        M 0x80004260 sw a1, 8(a4)                   #; a4  = 0x800061d0, 0 ~~> Word[0x800061d8]
 7283000     7281        M 0x80004264 sw a1, 12(a4)                  #; a4  = 0x800061d0, 0 ~~> Word[0x800061dc]
 7284000     7282        M 0x80004268 addi a4, a4, 16                #; a4  = 0x800061d0, (wrb) a4  <-- 0x800061e0
 7285000     7283        M 0x8000426c bltu a4, a3, -20               #; a4  = 0x800061e0, a3  = 0x800062e0, taken, goto 0x80004258
 7332000     7330        M 0x80004258 sw a1, 0(a4)                   #; a4  = 0x800061e0, 0 ~~> Word[0x800061e0]
 7373000     7371        M 0x8000425c sw a1, 4(a4)                   #; a4  = 0x800061e0, 0 ~~> Word[0x800061e4]
 7422000     7420        M 0x80004260 sw a1, 8(a4)                   #; a4  = 0x800061e0, 0 ~~> Word[0x800061e8]
 7463000     7461        M 0x80004264 sw a1, 12(a4)                  #; a4  = 0x800061e0, 0 ~~> Word[0x800061ec]
 7464000     7462        M 0x80004268 addi a4, a4, 16                #; a4  = 0x800061e0, (wrb) a4  <-- 0x800061f0
 7465000     7463        M 0x8000426c bltu a4, a3, -20               #; a4  = 0x800061f0, a3  = 0x800062e0, taken, goto 0x80004258
 7512000     7510        M 0x80004258 sw a1, 0(a4)                   #; a4  = 0x800061f0, 0 ~~> Word[0x800061f0]
 7553000     7551        M 0x8000425c sw a1, 4(a4)                   #; a4  = 0x800061f0, 0 ~~> Word[0x800061f4]
 7602000     7600        M 0x80004260 sw a1, 8(a4)                   #; a4  = 0x800061f0, 0 ~~> Word[0x800061f8]
 7643000     7641        M 0x80004264 sw a1, 12(a4)                  #; a4  = 0x800061f0, 0 ~~> Word[0x800061fc]
 7644000     7642        M 0x80004268 addi a4, a4, 16                #; a4  = 0x800061f0, (wrb) a4  <-- 0x80006200
 7645000     7643        M 0x8000426c bltu a4, a3, -20               #; a4  = 0x80006200, a3  = 0x800062e0, taken, goto 0x80004258
 7692000     7690        M 0x80004258 sw a1, 0(a4)                   #; a4  = 0x80006200, 0 ~~> Word[0x80006200]
 7733000     7731        M 0x8000425c sw a1, 4(a4)                   #; a4  = 0x80006200, 0 ~~> Word[0x80006204]
 7782000     7780        M 0x80004260 sw a1, 8(a4)                   #; a4  = 0x80006200, 0 ~~> Word[0x80006208]
 7823000     7821        M 0x80004264 sw a1, 12(a4)                  #; a4  = 0x80006200, 0 ~~> Word[0x8000620c]
 7824000     7822        M 0x80004268 addi a4, a4, 16                #; a4  = 0x80006200, (wrb) a4  <-- 0x80006210
 7825000     7823        M 0x8000426c bltu a4, a3, -20               #; a4  = 0x80006210, a3  = 0x800062e0, taken, goto 0x80004258
 7872000     7870        M 0x80004258 sw a1, 0(a4)                   #; a4  = 0x80006210, 0 ~~> Word[0x80006210]
 7913000     7911        M 0x8000425c sw a1, 4(a4)                   #; a4  = 0x80006210, 0 ~~> Word[0x80006214]
 7962000     7960        M 0x80004260 sw a1, 8(a4)                   #; a4  = 0x80006210, 0 ~~> Word[0x80006218]
 8003000     8001        M 0x80004264 sw a1, 12(a4)                  #; a4  = 0x80006210, 0 ~~> Word[0x8000621c]
 8004000     8002        M 0x80004268 addi a4, a4, 16                #; a4  = 0x80006210, (wrb) a4  <-- 0x80006220
 8005000     8003        M 0x8000426c bltu a4, a3, -20               #; a4  = 0x80006220, a3  = 0x800062e0, taken, goto 0x80004258
 8052000     8050        M 0x80004258 sw a1, 0(a4)                   #; a4  = 0x80006220, 0 ~~> Word[0x80006220]
 8093000     8091        M 0x8000425c sw a1, 4(a4)                   #; a4  = 0x80006220, 0 ~~> Word[0x80006224]
 8142000     8140        M 0x80004260 sw a1, 8(a4)                   #; a4  = 0x80006220, 0 ~~> Word[0x80006228]
 8183000     8181        M 0x80004264 sw a1, 12(a4)                  #; a4  = 0x80006220, 0 ~~> Word[0x8000622c]
 8184000     8182        M 0x80004268 addi a4, a4, 16                #; a4  = 0x80006220, (wrb) a4  <-- 0x80006230
 8185000     8183        M 0x8000426c bltu a4, a3, -20               #; a4  = 0x80006230, a3  = 0x800062e0, taken, goto 0x80004258
 8232000     8230        M 0x80004258 sw a1, 0(a4)                   #; a4  = 0x80006230, 0 ~~> Word[0x80006230]
 8273000     8271        M 0x8000425c sw a1, 4(a4)                   #; a4  = 0x80006230, 0 ~~> Word[0x80006234]
 8322000     8320        M 0x80004260 sw a1, 8(a4)                   #; a4  = 0x80006230, 0 ~~> Word[0x80006238]
 8363000     8361        M 0x80004264 sw a1, 12(a4)                  #; a4  = 0x80006230, 0 ~~> Word[0x8000623c]
 8364000     8362        M 0x80004268 addi a4, a4, 16                #; a4  = 0x80006230, (wrb) a4  <-- 0x80006240
 8365000     8363        M 0x8000426c bltu a4, a3, -20               #; a4  = 0x80006240, a3  = 0x800062e0, taken, goto 0x80004258
 8412000     8410        M 0x80004258 sw a1, 0(a4)                   #; a4  = 0x80006240, 0 ~~> Word[0x80006240]
 8453000     8451        M 0x8000425c sw a1, 4(a4)                   #; a4  = 0x80006240, 0 ~~> Word[0x80006244]
 8502000     8500        M 0x80004260 sw a1, 8(a4)                   #; a4  = 0x80006240, 0 ~~> Word[0x80006248]
 8543000     8541        M 0x80004264 sw a1, 12(a4)                  #; a4  = 0x80006240, 0 ~~> Word[0x8000624c]
 8544000     8542        M 0x80004268 addi a4, a4, 16                #; a4  = 0x80006240, (wrb) a4  <-- 0x80006250
 8545000     8543        M 0x8000426c bltu a4, a3, -20               #; a4  = 0x80006250, a3  = 0x800062e0, taken, goto 0x80004258
 8592000     8590        M 0x80004258 sw a1, 0(a4)                   #; a4  = 0x80006250, 0 ~~> Word[0x80006250]
 8633000     8631        M 0x8000425c sw a1, 4(a4)                   #; a4  = 0x80006250, 0 ~~> Word[0x80006254]
 8682000     8680        M 0x80004260 sw a1, 8(a4)                   #; a4  = 0x80006250, 0 ~~> Word[0x80006258]
 8723000     8721        M 0x80004264 sw a1, 12(a4)                  #; a4  = 0x80006250, 0 ~~> Word[0x8000625c]
 8724000     8722        M 0x80004268 addi a4, a4, 16                #; a4  = 0x80006250, (wrb) a4  <-- 0x80006260
 8725000     8723        M 0x8000426c bltu a4, a3, -20               #; a4  = 0x80006260, a3  = 0x800062e0, taken, goto 0x80004258
 8772000     8770        M 0x80004258 sw a1, 0(a4)                   #; a4  = 0x80006260, 0 ~~> Word[0x80006260]
 8813000     8811        M 0x8000425c sw a1, 4(a4)                   #; a4  = 0x80006260, 0 ~~> Word[0x80006264]
 8862000     8860        M 0x80004260 sw a1, 8(a4)                   #; a4  = 0x80006260, 0 ~~> Word[0x80006268]
 8903000     8901        M 0x80004264 sw a1, 12(a4)                  #; a4  = 0x80006260, 0 ~~> Word[0x8000626c]
 8904000     8902        M 0x80004268 addi a4, a4, 16                #; a4  = 0x80006260, (wrb) a4  <-- 0x80006270
 8905000     8903        M 0x8000426c bltu a4, a3, -20               #; a4  = 0x80006270, a3  = 0x800062e0, taken, goto 0x80004258
 8952000     8950        M 0x80004258 sw a1, 0(a4)                   #; a4  = 0x80006270, 0 ~~> Word[0x80006270]
 8993000     8991        M 0x8000425c sw a1, 4(a4)                   #; a4  = 0x80006270, 0 ~~> Word[0x80006274]
 9042000     9040        M 0x80004260 sw a1, 8(a4)                   #; a4  = 0x80006270, 0 ~~> Word[0x80006278]
 9083000     9081        M 0x80004264 sw a1, 12(a4)                  #; a4  = 0x80006270, 0 ~~> Word[0x8000627c]
 9084000     9082        M 0x80004268 addi a4, a4, 16                #; a4  = 0x80006270, (wrb) a4  <-- 0x80006280
 9085000     9083        M 0x8000426c bltu a4, a3, -20               #; a4  = 0x80006280, a3  = 0x800062e0, taken, goto 0x80004258
 9132000     9130        M 0x80004258 sw a1, 0(a4)                   #; a4  = 0x80006280, 0 ~~> Word[0x80006280]
 9173000     9171        M 0x8000425c sw a1, 4(a4)                   #; a4  = 0x80006280, 0 ~~> Word[0x80006284]
 9222000     9220        M 0x80004260 sw a1, 8(a4)                   #; a4  = 0x80006280, 0 ~~> Word[0x80006288]
 9263000     9261        M 0x80004264 sw a1, 12(a4)                  #; a4  = 0x80006280, 0 ~~> Word[0x8000628c]
 9264000     9262        M 0x80004268 addi a4, a4, 16                #; a4  = 0x80006280, (wrb) a4  <-- 0x80006290
 9265000     9263        M 0x8000426c bltu a4, a3, -20               #; a4  = 0x80006290, a3  = 0x800062e0, taken, goto 0x80004258
 9312000     9310        M 0x80004258 sw a1, 0(a4)                   #; a4  = 0x80006290, 0 ~~> Word[0x80006290]
 9353000     9351        M 0x8000425c sw a1, 4(a4)                   #; a4  = 0x80006290, 0 ~~> Word[0x80006294]
 9402000     9400        M 0x80004260 sw a1, 8(a4)                   #; a4  = 0x80006290, 0 ~~> Word[0x80006298]
 9443000     9441        M 0x80004264 sw a1, 12(a4)                  #; a4  = 0x80006290, 0 ~~> Word[0x8000629c]
 9444000     9442        M 0x80004268 addi a4, a4, 16                #; a4  = 0x80006290, (wrb) a4  <-- 0x800062a0
 9445000     9443        M 0x8000426c bltu a4, a3, -20               #; a4  = 0x800062a0, a3  = 0x800062e0, taken, goto 0x80004258
 9492000     9490        M 0x80004258 sw a1, 0(a4)                   #; a4  = 0x800062a0, 0 ~~> Word[0x800062a0]
 9533000     9531        M 0x8000425c sw a1, 4(a4)                   #; a4  = 0x800062a0, 0 ~~> Word[0x800062a4]
 9582000     9580        M 0x80004260 sw a1, 8(a4)                   #; a4  = 0x800062a0, 0 ~~> Word[0x800062a8]
 9623000     9621        M 0x80004264 sw a1, 12(a4)                  #; a4  = 0x800062a0, 0 ~~> Word[0x800062ac]
 9624000     9622        M 0x80004268 addi a4, a4, 16                #; a4  = 0x800062a0, (wrb) a4  <-- 0x800062b0
 9625000     9623        M 0x8000426c bltu a4, a3, -20               #; a4  = 0x800062b0, a3  = 0x800062e0, taken, goto 0x80004258
 9672000     9670        M 0x80004258 sw a1, 0(a4)                   #; a4  = 0x800062b0, 0 ~~> Word[0x800062b0]
 9713000     9711        M 0x8000425c sw a1, 4(a4)                   #; a4  = 0x800062b0, 0 ~~> Word[0x800062b4]
 9762000     9760        M 0x80004260 sw a1, 8(a4)                   #; a4  = 0x800062b0, 0 ~~> Word[0x800062b8]
 9803000     9801        M 0x80004264 sw a1, 12(a4)                  #; a4  = 0x800062b0, 0 ~~> Word[0x800062bc]
 9804000     9802        M 0x80004268 addi a4, a4, 16                #; a4  = 0x800062b0, (wrb) a4  <-- 0x800062c0
 9805000     9803        M 0x8000426c bltu a4, a3, -20               #; a4  = 0x800062c0, a3  = 0x800062e0, taken, goto 0x80004258
 9852000     9850        M 0x80004258 sw a1, 0(a4)                   #; a4  = 0x800062c0, 0 ~~> Word[0x800062c0]
 9893000     9891        M 0x8000425c sw a1, 4(a4)                   #; a4  = 0x800062c0, 0 ~~> Word[0x800062c4]
 9942000     9940        M 0x80004260 sw a1, 8(a4)                   #; a4  = 0x800062c0, 0 ~~> Word[0x800062c8]
 9983000     9981        M 0x80004264 sw a1, 12(a4)                  #; a4  = 0x800062c0, 0 ~~> Word[0x800062cc]
 9984000     9982        M 0x80004268 addi a4, a4, 16                #; a4  = 0x800062c0, (wrb) a4  <-- 0x800062d0
 9985000     9983        M 0x8000426c bltu a4, a3, -20               #; a4  = 0x800062d0, a3  = 0x800062e0, taken, goto 0x80004258
10032000    10030        M 0x80004258 sw a1, 0(a4)                   #; a4  = 0x800062d0, 0 ~~> Word[0x800062d0]
10073000    10071        M 0x8000425c sw a1, 4(a4)                   #; a4  = 0x800062d0, 0 ~~> Word[0x800062d4]
10122000    10120        M 0x80004260 sw a1, 8(a4)                   #; a4  = 0x800062d0, 0 ~~> Word[0x800062d8]
10163000    10161        M 0x80004264 sw a1, 12(a4)                  #; a4  = 0x800062d0, 0 ~~> Word[0x800062dc]
10164000    10162        M 0x80004268 addi a4, a4, 16                #; a4  = 0x800062d0, (wrb) a4  <-- 0x800062e0
10165000    10163        M 0x8000426c bltu a4, a3, -20               #; a4  = 0x800062e0, a3  = 0x800062e0, not taken
10166000    10164        M 0x80004270 bnez a2, 8                     #; a2  = 0, not taken
10167000    10165        M 0x80004274 ret                            #; ra  = 0x80003d78, goto 0x80003d78
10168000    10166        M 0x80003d78 csrr zero, 1986                #; csr@7c2 = 0
10209000    10207        M 0x80003d7c li a0, 57                      #; (wrb) a0  <-- 57
10210000    10208        M 0x80003d80 mul a0, s1, a0                 #; s1  = 8, a0  = 57
10212000    10210        M                                           #; (acc) a0  <-- 456
10213000    10211        M 0x80003d84 srli a0, a0, 9                 #; a0  = 456, (wrb) a0  <-- 0
10214000    10212        M 0x80003d88 slli a1, a0, 3                 #; a0  = 0, (wrb) a1  <-- 0
10215000    10213        M 0x80003d8c add a0, a1, a0                 #; a1  = 0, a0  = 0, (wrb) a0  <-- 0
10216000    10214        M 0x80003d90 sub a0, s2, a0                 #; s2  = 8, a0  = 0, (wrb) a0  <-- 8
10217000    10215        M 0x80003d94 p.extbz s5, a0                 #; a0  = 8
10218000    10216        M 0x80003d98 li s4, 0                       #; (wrb) s4  <-- 0
10219000    10217        M                                           #; (acc) s5  <-- 8
10220000    10218        M 0x80003d9c bnez s5, 32                    #; s5  = 8, taken, goto 0x80003dbc
10221000    10219        M 0x80003dbc csrr zero, 1986                #; csr@7c2 = 0
10268000    10266        M 0x80003dc0 lui a0, 65569                  #; (wrb) a0  <-- 0x10021000
10269000    10267        M 0x80003dc4 addi a0, a0, 424               #; a0  = 0x10021000, (wrb) a0  <-- 0x100211a8
10270000    10268        M 0x80003dc8 add a0, s3, a0                 #; s3  = 0, a0  = 0x100211a8, (wrb) a0  <-- 0x100211a8
10271000    10269        M 0x80003dcc lw a1, 0(a0)                   #; a0  = 0x100211a8, a1  <~~ Word[0x100211a8]
10299000    10297        M                                           #; (lsu) a1  <-- 0
10300000    10298        M 0x80003dd0 ori a1, a0, 4                  #; a0  = 0x100211a8, (wrb) a1  <-- 0x100211ac
10301000    10299        M 0x80003dd4 lw a2, 0(a1)                   #; a1  = 0x100211ac, a2  <~~ Word[0x100211ac]
10302000    10300        M 0x80003dd8 li a3, 1                       #; (wrb) a3  <-- 1
10303000    10301        M 0x80003ddc sll a3, a3, s5                 #; a3  = 1, s5  = 8, (wrb) a3  <-- 256
10327000    10325        M                                           #; (lsu) a2  <-- 0
10328000    10326        M 0x80003de0 and a2, a2, s0                 #; a2  = 0, s0  = -1, (wrb) a2  <-- 0
10329000    10327        M 0x80003de4 sw a3, 0(a0)                   #; a0  = 0x100211a8, 256 ~~> Word[0x100211a8]
10330000    10328        M 0x80003de8 sw a2, 0(a1)                   #; a1  = 0x100211ac, 0 ~~> Word[0x100211ac]
10331000    10329        M 0x80003dec lui a0, 128                    #; (wrb) a0  <-- 0x00080000
10332000    10330        M 0x80003df0 csrr a1, mip                   #; mip = 0, (wrb) a1  <-- 0
10333000    10331        M 0x80003df4 and a1, a1, a0                 #; a1  = 0, a0  = 0x00080000, (wrb) a1  <-- 0
10334000    10332        M 0x80003df8 bnez a1, -8                    #; a1  = 0, not taken
10335000    10333        M 0x80003dfc mv a0, tp                      #; tp  = 0x1001df48, (wrb) a0  <-- 0x1001df48
10348000    10346        M 0x80003e00 sw a0, 8(sp)                   #; sp  = 0x1001df08, 0x1001df48 ~~> Word[0x1001df10]
10382000    10380        M 0x80003e04 lw a0, 8(sp)                   #; sp  = 0x1001df08, a0  <~~ Word[0x1001df10]
10383000    10381        M 0x80003e08 auipc a1, 2                    #; (wrb) a1  <-- 0x80005e08
10384000    10382        M 0x80003e0c addi a1, a1, 128               #; a1  = 0x80005e08, (wrb) a1  <-- 0x80005e88
10385000    10383        M 0x80003e10 auipc a2, 2                    #; (wrb) a2  <-- 0x80005e10
10386000    10384        M 0x80003e14 addi a2, a2, 132               #; a2  = 0x80005e10, (wrb) a2  <-- 0x80005e94
10387000    10385        M 0x80003e18 sub s0, a2, a1                 #; a2  = 0x80005e94, a1  = 0x80005e88, (wrb) s0  <-- 12
10388000    10386        M 0x80003e1c mv a2, s0                      #; s0  = 12, (wrb) a2  <-- 12
10389000    10387        M 0x80003e20 auipc ra, 0                    #; (wrb) ra  <-- 0x80003e20
10390000    10388        M 0x80003e24 jalr 1264(ra)                  #; ra  = 0x80003e20, (wrb) ra  <-- 0x80003e28, goto 0x80004310
10391000    10389        M 0x80004310 addi sp, sp, -16               #; sp  = 0x1001df08, (wrb) sp  <-- 0x1001def8
10392000    10390        M 0x80004314 sw s0, 12(sp)                  #; sp  = 0x1001def8, 12 ~~> Word[0x1001df04], (lsu) a0  <-- 0x1001df48
10393000    10391        M 0x80004318 andi a3, a0, 3                 #; a0  = 0x1001df48, (wrb) a3  <-- 0
10394000    10392        M 0x8000431c andi a4, a1, 3                 #; a1  = 0x80005e88, (wrb) a4  <-- 0
10395000    10393        M 0x80004320 xor a4, a3, a4                 #; a3  = 0, a4  = 0, (wrb) a4  <-- 0
10396000    10394        M 0x80004324 seqz a4, a4                    #; a4  = 0, (wrb) a4  <-- 1
10397000    10395        M 0x80004328 li a5, 3                       #; (wrb) a5  <-- 3
10398000    10396        M 0x8000432c sltu a5, a5, a2                #; a5  = 3, a2  = 12, (wrb) a5  <-- 1
10399000    10397        M 0x80004330 and a4, a5, a4                 #; a5  = 1, a4  = 1, (wrb) a4  <-- 1
10400000    10398        M 0x80004334 add a2, a0, a2                 #; a0  = 0x1001df48, a2  = 12, (wrb) a2  <-- 0x1001df54
10401000    10399        M 0x80004338 beqz a4, 80                    #; a4  = 1, not taken
10402000    10400        M 0x8000433c bnez a3, 116                   #; a3  = 0, not taken
10403000    10401        M 0x80004340 mv a4, a0                      #; a0  = 0x1001df48, (wrb) a4  <-- 0x1001df48
10404000    10402        M 0x80004344 andi a3, a2, -4                #; a2  = 0x1001df54, (wrb) a3  <-- 0x1001df54
10405000    10403        M 0x80004348 sub a5, a3, a4                 #; a3  = 0x1001df54, a4  = 0x1001df48, (wrb) a5  <-- 12
10406000    10404        M 0x8000434c li a6, 33                      #; (wrb) a6  <-- 33
10407000    10405        M 0x80004350 bge a5, a6, 140                #; a5  = 12, a6  = 33, not taken
10408000    10406        M 0x80004354 bgeu a4, a3, 32                #; a4  = 0x1001df48, a3  = 0x1001df54, not taken
10409000    10407        M 0x80004358 lw a6, 0(a1)                   #; a1  = 0x80005e88, a6  <~~ Word[0x80005e88]
10410000    10408        M 0x8000435c addi a5, a4, 4                 #; a4  = 0x1001df48, (wrb) a5  <-- 0x1001df4c
10411000    10409        M 0x80004360 addi a1, a1, 4                 #; a1  = 0x80005e88, (wrb) a1  <-- 0x80005e8c
10420000    10418        M                                           #; (lsu) a6  <-- 0x80005fc0
10421000    10419        M 0x80004364 sw a6, 0(a4)                   #; a4  = 0x1001df48, 0x80005fc0 ~~> Word[0x1001df48]
10422000    10420        M 0x80004368 mv a4, a5                      #; a5  = 0x1001df4c, (wrb) a4  <-- 0x1001df4c
10423000    10421        M 0x8000436c bltu a5, a3, -20               #; a5  = 0x1001df4c, a3  = 0x1001df54, taken, goto 0x80004358
10424000    10422        M 0x80004358 lw a6, 0(a1)                   #; a1  = 0x80005e8c, a6  <~~ Word[0x80005e8c]
10425000    10423        M 0x8000435c addi a5, a4, 4                 #; a4  = 0x1001df4c, (wrb) a5  <-- 0x1001df50
10426000    10424        M 0x80004360 addi a1, a1, 4                 #; a1  = 0x80005e8c, (wrb) a1  <-- 0x80005e90
10464000    10462        M                                           #; (lsu) a6  <-- 1
10465000    10463        M 0x80004364 sw a6, 0(a4)                   #; a4  = 0x1001df4c, 1 ~~> Word[0x1001df4c]
10466000    10464        M 0x80004368 mv a4, a5                      #; a5  = 0x1001df50, (wrb) a4  <-- 0x1001df50
10467000    10465        M 0x8000436c bltu a5, a3, -20               #; a5  = 0x1001df50, a3  = 0x1001df54, taken, goto 0x80004358
10468000    10466        M 0x80004358 lw a6, 0(a1)                   #; a1  = 0x80005e90, a6  <~~ Word[0x80005e90]
10469000    10467        M 0x8000435c addi a5, a4, 4                 #; a4  = 0x1001df50, (wrb) a5  <-- 0x1001df54
10470000    10468        M 0x80004360 addi a1, a1, 4                 #; a1  = 0x80005e90, (wrb) a1  <-- 0x80005e94
10501000    10499        M                                           #; (lsu) a6  <-- 1
10502000    10500        M 0x80004364 sw a6, 0(a4)                   #; a4  = 0x1001df50, 1 ~~> Word[0x1001df50]
10503000    10501        M 0x80004368 mv a4, a5                      #; a5  = 0x1001df54, (wrb) a4  <-- 0x1001df54
10504000    10502        M 0x8000436c bltu a5, a3, -20               #; a5  = 0x1001df54, a3  = 0x1001df54, not taken
10505000    10503        M 0x80004370 j 8                            #; goto 0x80004378
10506000    10504        M 0x80004378 bltu a5, a2, 20                #; a5  = 0x1001df54, a2  = 0x1001df54, not taken
10507000    10505        M 0x8000437c lw s0, 12(sp)                  #; sp  = 0x1001def8, s0  <~~ Word[0x1001df04]
10510000    10508        M                                           #; (lsu) s0  <-- 12
10516000    10514        M 0x80004380 addi sp, sp, 16                #; sp  = 0x1001def8, (wrb) sp  <-- 0x1001df08
10517000    10515        M 0x80004384 ret                            #; ra  = 0x80003e28, goto 0x80003e28
10518000    10516        M 0x80003e28 lw a0, 8(sp)                   #; sp  = 0x1001df08, a0  <~~ Word[0x1001df10]
10519000    10517        M 0x80003e2c lw a1, 8(sp)                   #; sp  = 0x1001df08, a1  <~~ Word[0x1001df10]
10521000    10519        M                                           #; (lsu) a0  <-- 0x1001df48
10522000    10520        M 0x80003e30 addi a0, a0, 1032              #; a0  = 0x1001df48, (wrb) a0  <-- 0x1001e350
10523000    10521        M 0x80003e34 mv a2, s0                      #; s0  = 12, (wrb) a2  <-- 12
10524000    10522        M 0x80003e38 auipc ra, 0                    #; (wrb) ra  <-- 0x80003e38
10525000    10523        M 0x80003e3c jalr 1240(ra)                  #; ra  = 0x80003e38, (wrb) ra  <-- 0x80003e40, goto 0x80004310
10526000    10524        M 0x80004310 addi sp, sp, -16               #; sp  = 0x1001df08, (wrb) sp  <-- 0x1001def8
10527000    10525        M 0x80004314 sw s0, 12(sp)                  #; sp  = 0x1001def8, 12 ~~> Word[0x1001df04], (lsu) a1  <-- 0x1001df48
10528000    10526        M 0x80004318 andi a3, a0, 3                 #; a0  = 0x1001e350, (wrb) a3  <-- 0
10529000    10527        M 0x8000431c andi a4, a1, 3                 #; a1  = 0x1001df48, (wrb) a4  <-- 0
10530000    10528        M 0x80004320 xor a4, a3, a4                 #; a3  = 0, a4  = 0, (wrb) a4  <-- 0
10531000    10529        M 0x80004324 seqz a4, a4                    #; a4  = 0, (wrb) a4  <-- 1
10532000    10530        M 0x80004328 li a5, 3                       #; (wrb) a5  <-- 3
10533000    10531        M 0x8000432c sltu a5, a5, a2                #; a5  = 3, a2  = 12, (wrb) a5  <-- 1
10534000    10532        M 0x80004330 and a4, a5, a4                 #; a5  = 1, a4  = 1, (wrb) a4  <-- 1
10535000    10533        M 0x80004334 add a2, a0, a2                 #; a0  = 0x1001e350, a2  = 12, (wrb) a2  <-- 0x1001e35c
10536000    10534        M 0x80004338 beqz a4, 80                    #; a4  = 1, not taken
10537000    10535        M 0x8000433c bnez a3, 116                   #; a3  = 0, not taken
10538000    10536        M 0x80004340 mv a4, a0                      #; a0  = 0x1001e350, (wrb) a4  <-- 0x1001e350
10539000    10537        M 0x80004344 andi a3, a2, -4                #; a2  = 0x1001e35c, (wrb) a3  <-- 0x1001e35c
10540000    10538        M 0x80004348 sub a5, a3, a4                 #; a3  = 0x1001e35c, a4  = 0x1001e350, (wrb) a5  <-- 12
10541000    10539        M 0x8000434c li a6, 33                      #; (wrb) a6  <-- 33
10542000    10540        M 0x80004350 bge a5, a6, 140                #; a5  = 12, a6  = 33, not taken
10543000    10541        M 0x80004354 bgeu a4, a3, 32                #; a4  = 0x1001e350, a3  = 0x1001e35c, not taken
10544000    10542        M 0x80004358 lw a6, 0(a1)                   #; a1  = 0x1001df48, a6  <~~ Word[0x1001df48]
10545000    10543        M 0x8000435c addi a5, a4, 4                 #; a4  = 0x1001e350, (wrb) a5  <-- 0x1001e354
10546000    10544        M 0x80004360 addi a1, a1, 4                 #; a1  = 0x1001df48, (wrb) a1  <-- 0x1001df4c
10547000    10545        M                                           #; (lsu) a6  <-- 0x80005fc0
10548000    10546        M 0x80004364 sw a6, 0(a4)                   #; a4  = 0x1001e350, 0x80005fc0 ~~> Word[0x1001e350]
10549000    10547        M 0x80004368 mv a4, a5                      #; a5  = 0x1001e354, (wrb) a4  <-- 0x1001e354
10550000    10548        M 0x8000436c bltu a5, a3, -20               #; a5  = 0x1001e354, a3  = 0x1001e35c, taken, goto 0x80004358
10551000    10549        M 0x80004358 lw a6, 0(a1)                   #; a1  = 0x1001df4c, a6  <~~ Word[0x1001df4c]
10552000    10550        M 0x8000435c addi a5, a4, 4                 #; a4  = 0x1001e354, (wrb) a5  <-- 0x1001e358
10553000    10551        M 0x80004360 addi a1, a1, 4                 #; a1  = 0x1001df4c, (wrb) a1  <-- 0x1001df50
10554000    10552        M                                           #; (lsu) a6  <-- 1
10555000    10553        M 0x80004364 sw a6, 0(a4)                   #; a4  = 0x1001e354, 1 ~~> Word[0x1001e354]
10556000    10554        M 0x80004368 mv a4, a5                      #; a5  = 0x1001e358, (wrb) a4  <-- 0x1001e358
10557000    10555        M 0x8000436c bltu a5, a3, -20               #; a5  = 0x1001e358, a3  = 0x1001e35c, taken, goto 0x80004358
10558000    10556        M 0x80004358 lw a6, 0(a1)                   #; a1  = 0x1001df50, a6  <~~ Word[0x1001df50]
10559000    10557        M 0x8000435c addi a5, a4, 4                 #; a4  = 0x1001e358, (wrb) a5  <-- 0x1001e35c
10560000    10558        M 0x80004360 addi a1, a1, 4                 #; a1  = 0x1001df50, (wrb) a1  <-- 0x1001df54
10561000    10559        M                                           #; (lsu) a6  <-- 1
10562000    10560        M 0x80004364 sw a6, 0(a4)                   #; a4  = 0x1001e358, 1 ~~> Word[0x1001e358]
10563000    10561        M 0x80004368 mv a4, a5                      #; a5  = 0x1001e35c, (wrb) a4  <-- 0x1001e35c
10564000    10562        M 0x8000436c bltu a5, a3, -20               #; a5  = 0x1001e35c, a3  = 0x1001e35c, not taken
10565000    10563        M 0x80004370 j 8                            #; goto 0x80004378
10566000    10564        M 0x80004378 bltu a5, a2, 20                #; a5  = 0x1001e35c, a2  = 0x1001e35c, not taken
10567000    10565        M 0x8000437c lw s0, 12(sp)                  #; sp  = 0x1001def8, s0  <~~ Word[0x1001df04]
10568000    10566        M 0x80004380 addi sp, sp, 16                #; sp  = 0x1001def8, (wrb) sp  <-- 0x1001df08
10569000    10567        M 0x80004384 ret                            #; ra  = 0x80003e40, goto 0x80003e40
10570000    10568        M 0x80003e40 lw a0, 8(sp)                   #; sp  = 0x1001df08, a0  <~~ Word[0x1001df10], (lsu) s0  <-- 12
10571000    10569        M 0x80003e44 lw a1, 8(sp)                   #; sp  = 0x1001df08, a1  <~~ Word[0x1001df10]
10572000    10570        M 0x80003e48 lui s7, 1                      #; (wrb) s7  <-- 4096
10573000    10571        M 0x80003e4c addi s1, s7, -2032             #; s7  = 4096, (wrb) s1  <-- 2064
10574000    10572        M                                           #; (lsu) a0  <-- 0x1001df48
10575000    10573        M 0x80003e50 add a0, a0, s1                 #; a0  = 0x1001df48, s1  = 2064, (wrb) a0  <-- 0x1001e758
10576000    10574        M 0x80003e54 mv a2, s0                      #; s0  = 12, (wrb) a2  <-- 12
10577000    10575        M 0x80003e58 auipc ra, 0                    #; (wrb) ra  <-- 0x80003e58
10578000    10576        M 0x80003e5c jalr 1208(ra)                  #; ra  = 0x80003e58, (wrb) ra  <-- 0x80003e60, goto 0x80004310
10579000    10577        M 0x80004310 addi sp, sp, -16               #; sp  = 0x1001df08, (wrb) sp  <-- 0x1001def8
10580000    10578        M 0x80004314 sw s0, 12(sp)                  #; sp  = 0x1001def8, 12 ~~> Word[0x1001df04], (lsu) a1  <-- 0x1001df48
10581000    10579        M 0x80004318 andi a3, a0, 3                 #; a0  = 0x1001e758, (wrb) a3  <-- 0
10582000    10580        M 0x8000431c andi a4, a1, 3                 #; a1  = 0x1001df48, (wrb) a4  <-- 0
10583000    10581        M 0x80004320 xor a4, a3, a4                 #; a3  = 0, a4  = 0, (wrb) a4  <-- 0
10584000    10582        M 0x80004324 seqz a4, a4                    #; a4  = 0, (wrb) a4  <-- 1
10585000    10583        M 0x80004328 li a5, 3                       #; (wrb) a5  <-- 3
10586000    10584        M 0x8000432c sltu a5, a5, a2                #; a5  = 3, a2  = 12, (wrb) a5  <-- 1
10587000    10585        M 0x80004330 and a4, a5, a4                 #; a5  = 1, a4  = 1, (wrb) a4  <-- 1
10588000    10586        M 0x80004334 add a2, a0, a2                 #; a0  = 0x1001e758, a2  = 12, (wrb) a2  <-- 0x1001e764
10589000    10587        M 0x80004338 beqz a4, 80                    #; a4  = 1, not taken
10590000    10588        M 0x8000433c bnez a3, 116                   #; a3  = 0, not taken
10591000    10589        M 0x80004340 mv a4, a0                      #; a0  = 0x1001e758, (wrb) a4  <-- 0x1001e758
10592000    10590        M 0x80004344 andi a3, a2, -4                #; a2  = 0x1001e764, (wrb) a3  <-- 0x1001e764
10593000    10591        M 0x80004348 sub a5, a3, a4                 #; a3  = 0x1001e764, a4  = 0x1001e758, (wrb) a5  <-- 12
10594000    10592        M 0x8000434c li a6, 33                      #; (wrb) a6  <-- 33
10595000    10593        M 0x80004350 bge a5, a6, 140                #; a5  = 12, a6  = 33, not taken
10596000    10594        M 0x80004354 bgeu a4, a3, 32                #; a4  = 0x1001e758, a3  = 0x1001e764, not taken
10597000    10595        M 0x80004358 lw a6, 0(a1)                   #; a1  = 0x1001df48, a6  <~~ Word[0x1001df48]
10598000    10596        M 0x8000435c addi a5, a4, 4                 #; a4  = 0x1001e758, (wrb) a5  <-- 0x1001e75c
10599000    10597        M 0x80004360 addi a1, a1, 4                 #; a1  = 0x1001df48, (wrb) a1  <-- 0x1001df4c
10600000    10598        M                                           #; (lsu) a6  <-- 0x80005fc0
10601000    10599        M 0x80004364 sw a6, 0(a4)                   #; a4  = 0x1001e758, 0x80005fc0 ~~> Word[0x1001e758]
10602000    10600        M 0x80004368 mv a4, a5                      #; a5  = 0x1001e75c, (wrb) a4  <-- 0x1001e75c
10603000    10601        M 0x8000436c bltu a5, a3, -20               #; a5  = 0x1001e75c, a3  = 0x1001e764, taken, goto 0x80004358
10604000    10602        M 0x80004358 lw a6, 0(a1)                   #; a1  = 0x1001df4c, a6  <~~ Word[0x1001df4c]
10605000    10603        M 0x8000435c addi a5, a4, 4                 #; a4  = 0x1001e75c, (wrb) a5  <-- 0x1001e760
10606000    10604        M 0x80004360 addi a1, a1, 4                 #; a1  = 0x1001df4c, (wrb) a1  <-- 0x1001df50
10607000    10605        M                                           #; (lsu) a6  <-- 1
10608000    10606        M 0x80004364 sw a6, 0(a4)                   #; a4  = 0x1001e75c, 1 ~~> Word[0x1001e75c]
10609000    10607        M 0x80004368 mv a4, a5                      #; a5  = 0x1001e760, (wrb) a4  <-- 0x1001e760
10610000    10608        M 0x8000436c bltu a5, a3, -20               #; a5  = 0x1001e760, a3  = 0x1001e764, taken, goto 0x80004358
10611000    10609        M 0x80004358 lw a6, 0(a1)                   #; a1  = 0x1001df50, a6  <~~ Word[0x1001df50]
10612000    10610        M 0x8000435c addi a5, a4, 4                 #; a4  = 0x1001e760, (wrb) a5  <-- 0x1001e764
10613000    10611        M 0x80004360 addi a1, a1, 4                 #; a1  = 0x1001df50, (wrb) a1  <-- 0x1001df54
10614000    10612        M                                           #; (lsu) a6  <-- 1
10615000    10613        M 0x80004364 sw a6, 0(a4)                   #; a4  = 0x1001e760, 1 ~~> Word[0x1001e760]
10616000    10614        M 0x80004368 mv a4, a5                      #; a5  = 0x1001e764, (wrb) a4  <-- 0x1001e764
10617000    10615        M 0x8000436c bltu a5, a3, -20               #; a5  = 0x1001e764, a3  = 0x1001e764, not taken
10618000    10616        M 0x80004370 j 8                            #; goto 0x80004378
10619000    10617        M 0x80004378 bltu a5, a2, 20                #; a5  = 0x1001e764, a2  = 0x1001e764, not taken
10620000    10618        M 0x8000437c lw s0, 12(sp)                  #; sp  = 0x1001def8, s0  <~~ Word[0x1001df04]
10621000    10619        M 0x80004380 addi sp, sp, 16                #; sp  = 0x1001def8, (wrb) sp  <-- 0x1001df08
10622000    10620        M 0x80004384 ret                            #; ra  = 0x80003e60, goto 0x80003e60
10623000    10621        M 0x80003e60 lw a0, 8(sp)                   #; sp  = 0x1001df08, a0  <~~ Word[0x1001df10], (lsu) s0  <-- 12
10624000    10622        M 0x80003e64 lw a1, 8(sp)                   #; sp  = 0x1001df08, a1  <~~ Word[0x1001df10]
10625000    10623        M 0x80003e68 ori s6, s1, 1032               #; s1  = 2064, (wrb) s6  <-- 3096
10626000    10624        M                                           #; (lsu) a0  <-- 0x1001df48
10627000    10625        M 0x80003e6c add a0, a0, s6                 #; a0  = 0x1001df48, s6  = 3096, (wrb) a0  <-- 0x1001eb60
10628000    10626        M 0x80003e70 mv a2, s0                      #; s0  = 12, (wrb) a2  <-- 12
10629000    10627        M 0x80003e74 auipc ra, 0                    #; (wrb) ra  <-- 0x80003e74
10630000    10628        M 0x80003e78 jalr 1180(ra)                  #; ra  = 0x80003e74, (wrb) ra  <-- 0x80003e7c, goto 0x80004310
10631000    10629        M 0x80004310 addi sp, sp, -16               #; sp  = 0x1001df08, (wrb) sp  <-- 0x1001def8
10632000    10630        M 0x80004314 sw s0, 12(sp)                  #; sp  = 0x1001def8, 12 ~~> Word[0x1001df04], (lsu) a1  <-- 0x1001df48
10633000    10631        M 0x80004318 andi a3, a0, 3                 #; a0  = 0x1001eb60, (wrb) a3  <-- 0
10634000    10632        M 0x8000431c andi a4, a1, 3                 #; a1  = 0x1001df48, (wrb) a4  <-- 0
10635000    10633        M 0x80004320 xor a4, a3, a4                 #; a3  = 0, a4  = 0, (wrb) a4  <-- 0
10636000    10634        M 0x80004324 seqz a4, a4                    #; a4  = 0, (wrb) a4  <-- 1
10637000    10635        M 0x80004328 li a5, 3                       #; (wrb) a5  <-- 3
10638000    10636        M 0x8000432c sltu a5, a5, a2                #; a5  = 3, a2  = 12, (wrb) a5  <-- 1
10639000    10637        M 0x80004330 and a4, a5, a4                 #; a5  = 1, a4  = 1, (wrb) a4  <-- 1
10640000    10638        M 0x80004334 add a2, a0, a2                 #; a0  = 0x1001eb60, a2  = 12, (wrb) a2  <-- 0x1001eb6c
10641000    10639        M 0x80004338 beqz a4, 80                    #; a4  = 1, not taken
10642000    10640        M 0x8000433c bnez a3, 116                   #; a3  = 0, not taken
10643000    10641        M 0x80004340 mv a4, a0                      #; a0  = 0x1001eb60, (wrb) a4  <-- 0x1001eb60
10644000    10642        M 0x80004344 andi a3, a2, -4                #; a2  = 0x1001eb6c, (wrb) a3  <-- 0x1001eb6c
10645000    10643        M 0x80004348 sub a5, a3, a4                 #; a3  = 0x1001eb6c, a4  = 0x1001eb60, (wrb) a5  <-- 12
10646000    10644        M 0x8000434c li a6, 33                      #; (wrb) a6  <-- 33
10647000    10645        M 0x80004350 bge a5, a6, 140                #; a5  = 12, a6  = 33, not taken
10648000    10646        M 0x80004354 bgeu a4, a3, 32                #; a4  = 0x1001eb60, a3  = 0x1001eb6c, not taken
10649000    10647        M 0x80004358 lw a6, 0(a1)                   #; a1  = 0x1001df48, a6  <~~ Word[0x1001df48]
10650000    10648        M 0x8000435c addi a5, a4, 4                 #; a4  = 0x1001eb60, (wrb) a5  <-- 0x1001eb64
10651000    10649        M 0x80004360 addi a1, a1, 4                 #; a1  = 0x1001df48, (wrb) a1  <-- 0x1001df4c
10652000    10650        M                                           #; (lsu) a6  <-- 0x80005fc0
10653000    10651        M 0x80004364 sw a6, 0(a4)                   #; a4  = 0x1001eb60, 0x80005fc0 ~~> Word[0x1001eb60]
10654000    10652        M 0x80004368 mv a4, a5                      #; a5  = 0x1001eb64, (wrb) a4  <-- 0x1001eb64
10655000    10653        M 0x8000436c bltu a5, a3, -20               #; a5  = 0x1001eb64, a3  = 0x1001eb6c, taken, goto 0x80004358
10656000    10654        M 0x80004358 lw a6, 0(a1)                   #; a1  = 0x1001df4c, a6  <~~ Word[0x1001df4c]
10657000    10655        M 0x8000435c addi a5, a4, 4                 #; a4  = 0x1001eb64, (wrb) a5  <-- 0x1001eb68
10658000    10656        M 0x80004360 addi a1, a1, 4                 #; a1  = 0x1001df4c, (wrb) a1  <-- 0x1001df50
10659000    10657        M                                           #; (lsu) a6  <-- 1
10660000    10658        M 0x80004364 sw a6, 0(a4)                   #; a4  = 0x1001eb64, 1 ~~> Word[0x1001eb64]
10661000    10659        M 0x80004368 mv a4, a5                      #; a5  = 0x1001eb68, (wrb) a4  <-- 0x1001eb68
10662000    10660        M 0x8000436c bltu a5, a3, -20               #; a5  = 0x1001eb68, a3  = 0x1001eb6c, taken, goto 0x80004358
10663000    10661        M 0x80004358 lw a6, 0(a1)                   #; a1  = 0x1001df50, a6  <~~ Word[0x1001df50]
10664000    10662        M 0x8000435c addi a5, a4, 4                 #; a4  = 0x1001eb68, (wrb) a5  <-- 0x1001eb6c
10665000    10663        M 0x80004360 addi a1, a1, 4                 #; a1  = 0x1001df50, (wrb) a1  <-- 0x1001df54
10666000    10664        M                                           #; (lsu) a6  <-- 1
10667000    10665        M 0x80004364 sw a6, 0(a4)                   #; a4  = 0x1001eb68, 1 ~~> Word[0x1001eb68]
10668000    10666        M 0x80004368 mv a4, a5                      #; a5  = 0x1001eb6c, (wrb) a4  <-- 0x1001eb6c
10669000    10667        M 0x8000436c bltu a5, a3, -20               #; a5  = 0x1001eb6c, a3  = 0x1001eb6c, not taken
10670000    10668        M 0x80004370 j 8                            #; goto 0x80004378
10671000    10669        M 0x80004378 bltu a5, a2, 20                #; a5  = 0x1001eb6c, a2  = 0x1001eb6c, not taken
10672000    10670        M 0x8000437c lw s0, 12(sp)                  #; sp  = 0x1001def8, s0  <~~ Word[0x1001df04]
10673000    10671        M 0x80004380 addi sp, sp, 16                #; sp  = 0x1001def8, (wrb) sp  <-- 0x1001df08
10674000    10672        M 0x80004384 ret                            #; ra  = 0x80003e7c, goto 0x80003e7c
10675000    10673        M 0x80003e7c lw a0, 8(sp)                   #; sp  = 0x1001df08, a0  <~~ Word[0x1001df10], (lsu) s0  <-- 12
10676000    10674        M 0x80003e80 lw a1, 8(sp)                   #; sp  = 0x1001df08, a1  <~~ Word[0x1001df10]
10677000    10675        M 0x80003e84 addi s7, s7, 32                #; s7  = 4096, (wrb) s7  <-- 4128
10678000    10676        M                                           #; (lsu) a0  <-- 0x1001df48
10679000    10677        M 0x80003e88 add a0, a0, s7                 #; a0  = 0x1001df48, s7  = 4128, (wrb) a0  <-- 0x1001ef68
10680000    10678        M 0x80003e8c mv a2, s0                      #; s0  = 12, (wrb) a2  <-- 12
10681000    10679        M 0x80003e90 auipc ra, 0                    #; (wrb) ra  <-- 0x80003e90
10682000    10680        M 0x80003e94 jalr 1152(ra)                  #; ra  = 0x80003e90, (wrb) ra  <-- 0x80003e98, goto 0x80004310
10683000    10681        M                                           #; (lsu) a1  <-- 0x1001df48
10689000    10687        M 0x80004310 addi sp, sp, -16               #; sp  = 0x1001df08, (wrb) sp  <-- 0x1001def8
10690000    10688        M 0x80004314 sw s0, 12(sp)                  #; sp  = 0x1001def8, 12 ~~> Word[0x1001df04]
10691000    10689        M 0x80004318 andi a3, a0, 3                 #; a0  = 0x1001ef68, (wrb) a3  <-- 0
10692000    10690        M 0x8000431c andi a4, a1, 3                 #; a1  = 0x1001df48, (wrb) a4  <-- 0
10693000    10691        M 0x80004320 xor a4, a3, a4                 #; a3  = 0, a4  = 0, (wrb) a4  <-- 0
10694000    10692        M 0x80004324 seqz a4, a4                    #; a4  = 0, (wrb) a4  <-- 1
10695000    10693        M 0x80004328 li a5, 3                       #; (wrb) a5  <-- 3
10696000    10694        M 0x8000432c sltu a5, a5, a2                #; a5  = 3, a2  = 12, (wrb) a5  <-- 1
10697000    10695        M 0x80004330 and a4, a5, a4                 #; a5  = 1, a4  = 1, (wrb) a4  <-- 1
10698000    10696        M 0x80004334 add a2, a0, a2                 #; a0  = 0x1001ef68, a2  = 12, (wrb) a2  <-- 0x1001ef74
10699000    10697        M 0x80004338 beqz a4, 80                    #; a4  = 1, not taken
10700000    10698        M 0x8000433c bnez a3, 116                   #; a3  = 0, not taken
10701000    10699        M 0x80004340 mv a4, a0                      #; a0  = 0x1001ef68, (wrb) a4  <-- 0x1001ef68
10702000    10700        M 0x80004344 andi a3, a2, -4                #; a2  = 0x1001ef74, (wrb) a3  <-- 0x1001ef74
10703000    10701        M 0x80004348 sub a5, a3, a4                 #; a3  = 0x1001ef74, a4  = 0x1001ef68, (wrb) a5  <-- 12
10704000    10702        M 0x8000434c li a6, 33                      #; (wrb) a6  <-- 33
10705000    10703        M 0x80004350 bge a5, a6, 140                #; a5  = 12, a6  = 33, not taken
10706000    10704        M 0x80004354 bgeu a4, a3, 32                #; a4  = 0x1001ef68, a3  = 0x1001ef74, not taken
10707000    10705        M 0x80004358 lw a6, 0(a1)                   #; a1  = 0x1001df48, a6  <~~ Word[0x1001df48]
10708000    10706        M 0x8000435c addi a5, a4, 4                 #; a4  = 0x1001ef68, (wrb) a5  <-- 0x1001ef6c
10709000    10707        M 0x80004360 addi a1, a1, 4                 #; a1  = 0x1001df48, (wrb) a1  <-- 0x1001df4c
10710000    10708        M                                           #; (lsu) a6  <-- 0x80005fc0
10711000    10709        M 0x80004364 sw a6, 0(a4)                   #; a4  = 0x1001ef68, 0x80005fc0 ~~> Word[0x1001ef68]
10712000    10710        M 0x80004368 mv a4, a5                      #; a5  = 0x1001ef6c, (wrb) a4  <-- 0x1001ef6c
10713000    10711        M 0x8000436c bltu a5, a3, -20               #; a5  = 0x1001ef6c, a3  = 0x1001ef74, taken, goto 0x80004358
10714000    10712        M 0x80004358 lw a6, 0(a1)                   #; a1  = 0x1001df4c, a6  <~~ Word[0x1001df4c]
10715000    10713        M 0x8000435c addi a5, a4, 4                 #; a4  = 0x1001ef6c, (wrb) a5  <-- 0x1001ef70
10716000    10714        M 0x80004360 addi a1, a1, 4                 #; a1  = 0x1001df4c, (wrb) a1  <-- 0x1001df50
10717000    10715        M                                           #; (lsu) a6  <-- 1
10718000    10716        M 0x80004364 sw a6, 0(a4)                   #; a4  = 0x1001ef6c, 1 ~~> Word[0x1001ef6c]
10719000    10717        M 0x80004368 mv a4, a5                      #; a5  = 0x1001ef70, (wrb) a4  <-- 0x1001ef70
10720000    10718        M 0x8000436c bltu a5, a3, -20               #; a5  = 0x1001ef70, a3  = 0x1001ef74, taken, goto 0x80004358
10721000    10719        M 0x80004358 lw a6, 0(a1)                   #; a1  = 0x1001df50, a6  <~~ Word[0x1001df50]
10722000    10720        M 0x8000435c addi a5, a4, 4                 #; a4  = 0x1001ef70, (wrb) a5  <-- 0x1001ef74
10723000    10721        M 0x80004360 addi a1, a1, 4                 #; a1  = 0x1001df50, (wrb) a1  <-- 0x1001df54
10724000    10722        M                                           #; (lsu) a6  <-- 1
10725000    10723        M 0x80004364 sw a6, 0(a4)                   #; a4  = 0x1001ef70, 1 ~~> Word[0x1001ef70]
10726000    10724        M 0x80004368 mv a4, a5                      #; a5  = 0x1001ef74, (wrb) a4  <-- 0x1001ef74
10727000    10725        M 0x8000436c bltu a5, a3, -20               #; a5  = 0x1001ef74, a3  = 0x1001ef74, not taken
10728000    10726        M 0x80004370 j 8                            #; goto 0x80004378
10729000    10727        M 0x80004378 bltu a5, a2, 20                #; a5  = 0x1001ef74, a2  = 0x1001ef74, not taken
10730000    10728        M 0x8000437c lw s0, 12(sp)                  #; sp  = 0x1001def8, s0  <~~ Word[0x1001df04]
10731000    10729        M 0x80004380 addi sp, sp, 16                #; sp  = 0x1001def8, (wrb) sp  <-- 0x1001df08
10732000    10730        M 0x80004384 ret                            #; ra  = 0x80003e98, goto 0x80003e98
10733000    10731        M 0x80003e98 lw a0, 8(sp)                   #; sp  = 0x1001df08, a0  <~~ Word[0x1001df10], (lsu) s0  <-- 12
10734000    10732        M 0x80003e9c lw a1, 8(sp)                   #; sp  = 0x1001df08, a1  <~~ Word[0x1001df10]
10735000    10733        M 0x80003ea0 ori s8, s7, 1032               #; s7  = 4128, (wrb) s8  <-- 5160
10736000    10734        M                                           #; (lsu) a0  <-- 0x1001df48
10737000    10735        M 0x80003ea4 add a0, a0, s8                 #; a0  = 0x1001df48, s8  = 5160, (wrb) a0  <-- 0x1001f370
10738000    10736        M 0x80003ea8 mv a2, s0                      #; s0  = 12, (wrb) a2  <-- 12
10739000    10737        M 0x80003eac auipc ra, 0                    #; (wrb) ra  <-- 0x80003eac
10740000    10738        M 0x80003eb0 jalr 1124(ra)                  #; ra  = 0x80003eac, (wrb) ra  <-- 0x80003eb4, goto 0x80004310
10741000    10739        M 0x80004310 addi sp, sp, -16               #; sp  = 0x1001df08, (wrb) sp  <-- 0x1001def8
10742000    10740        M 0x80004314 sw s0, 12(sp)                  #; sp  = 0x1001def8, 12 ~~> Word[0x1001df04], (lsu) a1  <-- 0x1001df48
10743000    10741        M 0x80004318 andi a3, a0, 3                 #; a0  = 0x1001f370, (wrb) a3  <-- 0
10744000    10742        M 0x8000431c andi a4, a1, 3                 #; a1  = 0x1001df48, (wrb) a4  <-- 0
10745000    10743        M 0x80004320 xor a4, a3, a4                 #; a3  = 0, a4  = 0, (wrb) a4  <-- 0
10746000    10744        M 0x80004324 seqz a4, a4                    #; a4  = 0, (wrb) a4  <-- 1
10747000    10745        M 0x80004328 li a5, 3                       #; (wrb) a5  <-- 3
10748000    10746        M 0x8000432c sltu a5, a5, a2                #; a5  = 3, a2  = 12, (wrb) a5  <-- 1
10749000    10747        M 0x80004330 and a4, a5, a4                 #; a5  = 1, a4  = 1, (wrb) a4  <-- 1
10750000    10748        M 0x80004334 add a2, a0, a2                 #; a0  = 0x1001f370, a2  = 12, (wrb) a2  <-- 0x1001f37c
10751000    10749        M 0x80004338 beqz a4, 80                    #; a4  = 1, not taken
10752000    10750        M 0x8000433c bnez a3, 116                   #; a3  = 0, not taken
10753000    10751        M 0x80004340 mv a4, a0                      #; a0  = 0x1001f370, (wrb) a4  <-- 0x1001f370
10754000    10752        M 0x80004344 andi a3, a2, -4                #; a2  = 0x1001f37c, (wrb) a3  <-- 0x1001f37c
10755000    10753        M 0x80004348 sub a5, a3, a4                 #; a3  = 0x1001f37c, a4  = 0x1001f370, (wrb) a5  <-- 12
10756000    10754        M 0x8000434c li a6, 33                      #; (wrb) a6  <-- 33
10757000    10755        M 0x80004350 bge a5, a6, 140                #; a5  = 12, a6  = 33, not taken
10758000    10756        M 0x80004354 bgeu a4, a3, 32                #; a4  = 0x1001f370, a3  = 0x1001f37c, not taken
10759000    10757        M 0x80004358 lw a6, 0(a1)                   #; a1  = 0x1001df48, a6  <~~ Word[0x1001df48]
10760000    10758        M 0x8000435c addi a5, a4, 4                 #; a4  = 0x1001f370, (wrb) a5  <-- 0x1001f374
10761000    10759        M 0x80004360 addi a1, a1, 4                 #; a1  = 0x1001df48, (wrb) a1  <-- 0x1001df4c
10762000    10760        M                                           #; (lsu) a6  <-- 0x80005fc0
10763000    10761        M 0x80004364 sw a6, 0(a4)                   #; a4  = 0x1001f370, 0x80005fc0 ~~> Word[0x1001f370]
10764000    10762        M 0x80004368 mv a4, a5                      #; a5  = 0x1001f374, (wrb) a4  <-- 0x1001f374
10765000    10763        M 0x8000436c bltu a5, a3, -20               #; a5  = 0x1001f374, a3  = 0x1001f37c, taken, goto 0x80004358
10766000    10764        M 0x80004358 lw a6, 0(a1)                   #; a1  = 0x1001df4c, a6  <~~ Word[0x1001df4c]
10767000    10765        M 0x8000435c addi a5, a4, 4                 #; a4  = 0x1001f374, (wrb) a5  <-- 0x1001f378
10768000    10766        M 0x80004360 addi a1, a1, 4                 #; a1  = 0x1001df4c, (wrb) a1  <-- 0x1001df50
10769000    10767        M                                           #; (lsu) a6  <-- 1
10770000    10768        M 0x80004364 sw a6, 0(a4)                   #; a4  = 0x1001f374, 1 ~~> Word[0x1001f374]
10771000    10769        M 0x80004368 mv a4, a5                      #; a5  = 0x1001f378, (wrb) a4  <-- 0x1001f378
10772000    10770        M 0x8000436c bltu a5, a3, -20               #; a5  = 0x1001f378, a3  = 0x1001f37c, taken, goto 0x80004358
10773000    10771        M 0x80004358 lw a6, 0(a1)                   #; a1  = 0x1001df50, a6  <~~ Word[0x1001df50]
10774000    10772        M 0x8000435c addi a5, a4, 4                 #; a4  = 0x1001f378, (wrb) a5  <-- 0x1001f37c
10775000    10773        M 0x80004360 addi a1, a1, 4                 #; a1  = 0x1001df50, (wrb) a1  <-- 0x1001df54
10776000    10774        M                                           #; (lsu) a6  <-- 1
10777000    10775        M 0x80004364 sw a6, 0(a4)                   #; a4  = 0x1001f378, 1 ~~> Word[0x1001f378]
10778000    10776        M 0x80004368 mv a4, a5                      #; a5  = 0x1001f37c, (wrb) a4  <-- 0x1001f37c
10779000    10777        M 0x8000436c bltu a5, a3, -20               #; a5  = 0x1001f37c, a3  = 0x1001f37c, not taken
10780000    10778        M 0x80004370 j 8                            #; goto 0x80004378
10781000    10779        M 0x80004378 bltu a5, a2, 20                #; a5  = 0x1001f37c, a2  = 0x1001f37c, not taken
10782000    10780        M 0x8000437c lw s0, 12(sp)                  #; sp  = 0x1001def8, s0  <~~ Word[0x1001df04]
10783000    10781        M 0x80004380 addi sp, sp, 16                #; sp  = 0x1001def8, (wrb) sp  <-- 0x1001df08
10784000    10782        M 0x80004384 ret                            #; ra  = 0x80003eb4, goto 0x80003eb4
10785000    10783        M 0x80003eb4 lw a0, 8(sp)                   #; sp  = 0x1001df08, a0  <~~ Word[0x1001df10], (lsu) s0  <-- 12
10786000    10784        M 0x80003eb8 lw a1, 8(sp)                   #; sp  = 0x1001df08, a1  <~~ Word[0x1001df10]
10787000    10785        M 0x80003ebc lui s11, 2                     #; (wrb) s11 <-- 8192
10788000    10786        M 0x80003ec0 addi s9, s11, -2000            #; s11 = 8192, (wrb) s9  <-- 6192
10789000    10787        M                                           #; (lsu) a0  <-- 0x1001df48
10790000    10788        M 0x80003ec4 add a0, a0, s9                 #; a0  = 0x1001df48, s9  = 6192, (wrb) a0  <-- 0x1001f778
10791000    10789        M 0x80003ec8 mv a2, s0                      #; s0  = 12, (wrb) a2  <-- 12
10792000    10790        M 0x80003ecc auipc ra, 0                    #; (wrb) ra  <-- 0x80003ecc
10793000    10791        M 0x80003ed0 jalr 1092(ra)                  #; ra  = 0x80003ecc, (wrb) ra  <-- 0x80003ed4, goto 0x80004310
10794000    10792        M 0x80004310 addi sp, sp, -16               #; sp  = 0x1001df08, (wrb) sp  <-- 0x1001def8
10795000    10793        M 0x80004314 sw s0, 12(sp)                  #; sp  = 0x1001def8, 12 ~~> Word[0x1001df04], (lsu) a1  <-- 0x1001df48
10796000    10794        M 0x80004318 andi a3, a0, 3                 #; a0  = 0x1001f778, (wrb) a3  <-- 0
10797000    10795        M 0x8000431c andi a4, a1, 3                 #; a1  = 0x1001df48, (wrb) a4  <-- 0
10798000    10796        M 0x80004320 xor a4, a3, a4                 #; a3  = 0, a4  = 0, (wrb) a4  <-- 0
10799000    10797        M 0x80004324 seqz a4, a4                    #; a4  = 0, (wrb) a4  <-- 1
10800000    10798        M 0x80004328 li a5, 3                       #; (wrb) a5  <-- 3
10801000    10799        M 0x8000432c sltu a5, a5, a2                #; a5  = 3, a2  = 12, (wrb) a5  <-- 1
10802000    10800        M 0x80004330 and a4, a5, a4                 #; a5  = 1, a4  = 1, (wrb) a4  <-- 1
10803000    10801        M 0x80004334 add a2, a0, a2                 #; a0  = 0x1001f778, a2  = 12, (wrb) a2  <-- 0x1001f784
10804000    10802        M 0x80004338 beqz a4, 80                    #; a4  = 1, not taken
10805000    10803        M 0x8000433c bnez a3, 116                   #; a3  = 0, not taken
10806000    10804        M 0x80004340 mv a4, a0                      #; a0  = 0x1001f778, (wrb) a4  <-- 0x1001f778
10807000    10805        M 0x80004344 andi a3, a2, -4                #; a2  = 0x1001f784, (wrb) a3  <-- 0x1001f784
10808000    10806        M 0x80004348 sub a5, a3, a4                 #; a3  = 0x1001f784, a4  = 0x1001f778, (wrb) a5  <-- 12
10809000    10807        M 0x8000434c li a6, 33                      #; (wrb) a6  <-- 33
10810000    10808        M 0x80004350 bge a5, a6, 140                #; a5  = 12, a6  = 33, not taken
10811000    10809        M 0x80004354 bgeu a4, a3, 32                #; a4  = 0x1001f778, a3  = 0x1001f784, not taken
10812000    10810        M 0x80004358 lw a6, 0(a1)                   #; a1  = 0x1001df48, a6  <~~ Word[0x1001df48]
10813000    10811        M 0x8000435c addi a5, a4, 4                 #; a4  = 0x1001f778, (wrb) a5  <-- 0x1001f77c
10814000    10812        M 0x80004360 addi a1, a1, 4                 #; a1  = 0x1001df48, (wrb) a1  <-- 0x1001df4c
10815000    10813        M                                           #; (lsu) a6  <-- 0x80005fc0
10816000    10814        M 0x80004364 sw a6, 0(a4)                   #; a4  = 0x1001f778, 0x80005fc0 ~~> Word[0x1001f778]
10817000    10815        M 0x80004368 mv a4, a5                      #; a5  = 0x1001f77c, (wrb) a4  <-- 0x1001f77c
10818000    10816        M 0x8000436c bltu a5, a3, -20               #; a5  = 0x1001f77c, a3  = 0x1001f784, taken, goto 0x80004358
10819000    10817        M 0x80004358 lw a6, 0(a1)                   #; a1  = 0x1001df4c, a6  <~~ Word[0x1001df4c]
10820000    10818        M 0x8000435c addi a5, a4, 4                 #; a4  = 0x1001f77c, (wrb) a5  <-- 0x1001f780
10821000    10819        M 0x80004360 addi a1, a1, 4                 #; a1  = 0x1001df4c, (wrb) a1  <-- 0x1001df50
10822000    10820        M                                           #; (lsu) a6  <-- 1
10823000    10821        M 0x80004364 sw a6, 0(a4)                   #; a4  = 0x1001f77c, 1 ~~> Word[0x1001f77c]
10824000    10822        M 0x80004368 mv a4, a5                      #; a5  = 0x1001f780, (wrb) a4  <-- 0x1001f780
10825000    10823        M 0x8000436c bltu a5, a3, -20               #; a5  = 0x1001f780, a3  = 0x1001f784, taken, goto 0x80004358
10826000    10824        M 0x80004358 lw a6, 0(a1)                   #; a1  = 0x1001df50, a6  <~~ Word[0x1001df50]
10827000    10825        M 0x8000435c addi a5, a4, 4                 #; a4  = 0x1001f780, (wrb) a5  <-- 0x1001f784
10828000    10826        M 0x80004360 addi a1, a1, 4                 #; a1  = 0x1001df50, (wrb) a1  <-- 0x1001df54
10829000    10827        M                                           #; (lsu) a6  <-- 1
10830000    10828        M 0x80004364 sw a6, 0(a4)                   #; a4  = 0x1001f780, 1 ~~> Word[0x1001f780]
10831000    10829        M 0x80004368 mv a4, a5                      #; a5  = 0x1001f784, (wrb) a4  <-- 0x1001f784
10832000    10830        M 0x8000436c bltu a5, a3, -20               #; a5  = 0x1001f784, a3  = 0x1001f784, not taken
10833000    10831        M 0x80004370 j 8                            #; goto 0x80004378
10834000    10832        M 0x80004378 bltu a5, a2, 20                #; a5  = 0x1001f784, a2  = 0x1001f784, not taken
10835000    10833        M 0x8000437c lw s0, 12(sp)                  #; sp  = 0x1001def8, s0  <~~ Word[0x1001df04]
10836000    10834        M 0x80004380 addi sp, sp, 16                #; sp  = 0x1001def8, (wrb) sp  <-- 0x1001df08
10837000    10835        M 0x80004384 ret                            #; ra  = 0x80003ed4, goto 0x80003ed4
10838000    10836        M 0x80003ed4 lw a0, 8(sp)                   #; sp  = 0x1001df08, a0  <~~ Word[0x1001df10], (lsu) s0  <-- 12
10839000    10837        M 0x80003ed8 lw a1, 8(sp)                   #; sp  = 0x1001df08, a1  <~~ Word[0x1001df10]
10840000    10838        M 0x80003edc ori s10, s9, 1032              #; s9  = 6192, (wrb) s10 <-- 7224
10841000    10839        M                                           #; (lsu) a0  <-- 0x1001df48
10842000    10840        M 0x80003ee0 add a0, a0, s10                #; a0  = 0x1001df48, s10 = 7224, (wrb) a0  <-- 0x1001fb80
10843000    10841        M 0x80003ee4 mv a2, s0                      #; s0  = 12, (wrb) a2  <-- 12
10844000    10842        M 0x80003ee8 auipc ra, 0                    #; (wrb) ra  <-- 0x80003ee8
10845000    10843        M 0x80003eec jalr 1064(ra)                  #; ra  = 0x80003ee8, (wrb) ra  <-- 0x80003ef0, goto 0x80004310
10846000    10844        M 0x80004310 addi sp, sp, -16               #; sp  = 0x1001df08, (wrb) sp  <-- 0x1001def8
10847000    10845        M 0x80004314 sw s0, 12(sp)                  #; sp  = 0x1001def8, 12 ~~> Word[0x1001df04], (lsu) a1  <-- 0x1001df48
10848000    10846        M 0x80004318 andi a3, a0, 3                 #; a0  = 0x1001fb80, (wrb) a3  <-- 0
10849000    10847        M 0x8000431c andi a4, a1, 3                 #; a1  = 0x1001df48, (wrb) a4  <-- 0
10850000    10848        M 0x80004320 xor a4, a3, a4                 #; a3  = 0, a4  = 0, (wrb) a4  <-- 0
10851000    10849        M 0x80004324 seqz a4, a4                    #; a4  = 0, (wrb) a4  <-- 1
10852000    10850        M 0x80004328 li a5, 3                       #; (wrb) a5  <-- 3
10853000    10851        M 0x8000432c sltu a5, a5, a2                #; a5  = 3, a2  = 12, (wrb) a5  <-- 1
10854000    10852        M 0x80004330 and a4, a5, a4                 #; a5  = 1, a4  = 1, (wrb) a4  <-- 1
10855000    10853        M 0x80004334 add a2, a0, a2                 #; a0  = 0x1001fb80, a2  = 12, (wrb) a2  <-- 0x1001fb8c
10856000    10854        M 0x80004338 beqz a4, 80                    #; a4  = 1, not taken
10857000    10855        M 0x8000433c bnez a3, 116                   #; a3  = 0, not taken
10858000    10856        M 0x80004340 mv a4, a0                      #; a0  = 0x1001fb80, (wrb) a4  <-- 0x1001fb80
10859000    10857        M 0x80004344 andi a3, a2, -4                #; a2  = 0x1001fb8c, (wrb) a3  <-- 0x1001fb8c
10860000    10858        M 0x80004348 sub a5, a3, a4                 #; a3  = 0x1001fb8c, a4  = 0x1001fb80, (wrb) a5  <-- 12
10861000    10859        M 0x8000434c li a6, 33                      #; (wrb) a6  <-- 33
10862000    10860        M 0x80004350 bge a5, a6, 140                #; a5  = 12, a6  = 33, not taken
10863000    10861        M 0x80004354 bgeu a4, a3, 32                #; a4  = 0x1001fb80, a3  = 0x1001fb8c, not taken
10864000    10862        M 0x80004358 lw a6, 0(a1)                   #; a1  = 0x1001df48, a6  <~~ Word[0x1001df48]
10865000    10863        M 0x8000435c addi a5, a4, 4                 #; a4  = 0x1001fb80, (wrb) a5  <-- 0x1001fb84
10866000    10864        M 0x80004360 addi a1, a1, 4                 #; a1  = 0x1001df48, (wrb) a1  <-- 0x1001df4c
10867000    10865        M                                           #; (lsu) a6  <-- 0x80005fc0
10868000    10866        M 0x80004364 sw a6, 0(a4)                   #; a4  = 0x1001fb80, 0x80005fc0 ~~> Word[0x1001fb80]
10869000    10867        M 0x80004368 mv a4, a5                      #; a5  = 0x1001fb84, (wrb) a4  <-- 0x1001fb84
10870000    10868        M 0x8000436c bltu a5, a3, -20               #; a5  = 0x1001fb84, a3  = 0x1001fb8c, taken, goto 0x80004358
10871000    10869        M 0x80004358 lw a6, 0(a1)                   #; a1  = 0x1001df4c, a6  <~~ Word[0x1001df4c]
10872000    10870        M 0x8000435c addi a5, a4, 4                 #; a4  = 0x1001fb84, (wrb) a5  <-- 0x1001fb88
10873000    10871        M 0x80004360 addi a1, a1, 4                 #; a1  = 0x1001df4c, (wrb) a1  <-- 0x1001df50
10874000    10872        M                                           #; (lsu) a6  <-- 1
10875000    10873        M 0x80004364 sw a6, 0(a4)                   #; a4  = 0x1001fb84, 1 ~~> Word[0x1001fb84]
10876000    10874        M 0x80004368 mv a4, a5                      #; a5  = 0x1001fb88, (wrb) a4  <-- 0x1001fb88
10877000    10875        M 0x8000436c bltu a5, a3, -20               #; a5  = 0x1001fb88, a3  = 0x1001fb8c, taken, goto 0x80004358
10878000    10876        M 0x80004358 lw a6, 0(a1)                   #; a1  = 0x1001df50, a6  <~~ Word[0x1001df50]
10879000    10877        M 0x8000435c addi a5, a4, 4                 #; a4  = 0x1001fb88, (wrb) a5  <-- 0x1001fb8c
10880000    10878        M 0x80004360 addi a1, a1, 4                 #; a1  = 0x1001df50, (wrb) a1  <-- 0x1001df54
10881000    10879        M                                           #; (lsu) a6  <-- 1
10882000    10880        M 0x80004364 sw a6, 0(a4)                   #; a4  = 0x1001fb88, 1 ~~> Word[0x1001fb88]
10883000    10881        M 0x80004368 mv a4, a5                      #; a5  = 0x1001fb8c, (wrb) a4  <-- 0x1001fb8c
10884000    10882        M 0x8000436c bltu a5, a3, -20               #; a5  = 0x1001fb8c, a3  = 0x1001fb8c, not taken
10885000    10883        M 0x80004370 j 8                            #; goto 0x80004378
10886000    10884        M 0x80004378 bltu a5, a2, 20                #; a5  = 0x1001fb8c, a2  = 0x1001fb8c, not taken
10887000    10885        M 0x8000437c lw s0, 12(sp)                  #; sp  = 0x1001def8, s0  <~~ Word[0x1001df04]
10888000    10886        M 0x80004380 addi sp, sp, 16                #; sp  = 0x1001def8, (wrb) sp  <-- 0x1001df08
10889000    10887        M 0x80004384 ret                            #; ra  = 0x80003ef0, goto 0x80003ef0
10890000    10888        M 0x80003ef0 lw a0, 8(sp)                   #; sp  = 0x1001df08, a0  <~~ Word[0x1001df10], (lsu) s0  <-- 12
10891000    10889        M 0x80003ef4 lw a1, 8(sp)                   #; sp  = 0x1001df08, a1  <~~ Word[0x1001df10]
10892000    10890        M 0x80003ef8 addi s11, s11, 64              #; s11 = 8192, (wrb) s11 <-- 8256
10893000    10891        M                                           #; (lsu) a0  <-- 0x1001df48
10894000    10892        M 0x80003efc add a0, a0, s11                #; a0  = 0x1001df48, s11 = 8256, (wrb) a0  <-- 0x1001ff88
10895000    10893        M 0x80003f00 mv a2, s0                      #; s0  = 12, (wrb) a2  <-- 12
10896000    10894        M 0x80003f04 auipc ra, 0                    #; (wrb) ra  <-- 0x80003f04
10897000    10895        M 0x80003f08 jalr 1036(ra)                  #; ra  = 0x80003f04, (wrb) ra  <-- 0x80003f0c, goto 0x80004310
10898000    10896        M 0x80004310 addi sp, sp, -16               #; sp  = 0x1001df08, (wrb) sp  <-- 0x1001def8
10899000    10897        M 0x80004314 sw s0, 12(sp)                  #; sp  = 0x1001def8, 12 ~~> Word[0x1001df04], (lsu) a1  <-- 0x1001df48
10900000    10898        M 0x80004318 andi a3, a0, 3                 #; a0  = 0x1001ff88, (wrb) a3  <-- 0
10901000    10899        M 0x8000431c andi a4, a1, 3                 #; a1  = 0x1001df48, (wrb) a4  <-- 0
10902000    10900        M 0x80004320 xor a4, a3, a4                 #; a3  = 0, a4  = 0, (wrb) a4  <-- 0
10903000    10901        M 0x80004324 seqz a4, a4                    #; a4  = 0, (wrb) a4  <-- 1
10904000    10902        M 0x80004328 li a5, 3                       #; (wrb) a5  <-- 3
10905000    10903        M 0x8000432c sltu a5, a5, a2                #; a5  = 3, a2  = 12, (wrb) a5  <-- 1
10906000    10904        M 0x80004330 and a4, a5, a4                 #; a5  = 1, a4  = 1, (wrb) a4  <-- 1
10907000    10905        M 0x80004334 add a2, a0, a2                 #; a0  = 0x1001ff88, a2  = 12, (wrb) a2  <-- 0x1001ff94
10908000    10906        M 0x80004338 beqz a4, 80                    #; a4  = 1, not taken
10909000    10907        M 0x8000433c bnez a3, 116                   #; a3  = 0, not taken
10910000    10908        M 0x80004340 mv a4, a0                      #; a0  = 0x1001ff88, (wrb) a4  <-- 0x1001ff88
10911000    10909        M 0x80004344 andi a3, a2, -4                #; a2  = 0x1001ff94, (wrb) a3  <-- 0x1001ff94
10912000    10910        M 0x80004348 sub a5, a3, a4                 #; a3  = 0x1001ff94, a4  = 0x1001ff88, (wrb) a5  <-- 12
10913000    10911        M 0x8000434c li a6, 33                      #; (wrb) a6  <-- 33
10914000    10912        M 0x80004350 bge a5, a6, 140                #; a5  = 12, a6  = 33, not taken
10915000    10913        M 0x80004354 bgeu a4, a3, 32                #; a4  = 0x1001ff88, a3  = 0x1001ff94, not taken
10916000    10914        M 0x80004358 lw a6, 0(a1)                   #; a1  = 0x1001df48, a6  <~~ Word[0x1001df48]
10917000    10915        M 0x8000435c addi a5, a4, 4                 #; a4  = 0x1001ff88, (wrb) a5  <-- 0x1001ff8c
10918000    10916        M 0x80004360 addi a1, a1, 4                 #; a1  = 0x1001df48, (wrb) a1  <-- 0x1001df4c
10919000    10917        M                                           #; (lsu) a6  <-- 0x80005fc0
10920000    10918        M 0x80004364 sw a6, 0(a4)                   #; a4  = 0x1001ff88, 0x80005fc0 ~~> Word[0x1001ff88]
10921000    10919        M 0x80004368 mv a4, a5                      #; a5  = 0x1001ff8c, (wrb) a4  <-- 0x1001ff8c
10922000    10920        M 0x8000436c bltu a5, a3, -20               #; a5  = 0x1001ff8c, a3  = 0x1001ff94, taken, goto 0x80004358
10923000    10921        M 0x80004358 lw a6, 0(a1)                   #; a1  = 0x1001df4c, a6  <~~ Word[0x1001df4c]
10924000    10922        M 0x8000435c addi a5, a4, 4                 #; a4  = 0x1001ff8c, (wrb) a5  <-- 0x1001ff90
10925000    10923        M 0x80004360 addi a1, a1, 4                 #; a1  = 0x1001df4c, (wrb) a1  <-- 0x1001df50
10926000    10924        M                                           #; (lsu) a6  <-- 1
10927000    10925        M 0x80004364 sw a6, 0(a4)                   #; a4  = 0x1001ff8c, 1 ~~> Word[0x1001ff8c]
10928000    10926        M 0x80004368 mv a4, a5                      #; a5  = 0x1001ff90, (wrb) a4  <-- 0x1001ff90
10929000    10927        M 0x8000436c bltu a5, a3, -20               #; a5  = 0x1001ff90, a3  = 0x1001ff94, taken, goto 0x80004358
10930000    10928        M 0x80004358 lw a6, 0(a1)                   #; a1  = 0x1001df50, a6  <~~ Word[0x1001df50]
10931000    10929        M 0x8000435c addi a5, a4, 4                 #; a4  = 0x1001ff90, (wrb) a5  <-- 0x1001ff94
10932000    10930        M 0x80004360 addi a1, a1, 4                 #; a1  = 0x1001df50, (wrb) a1  <-- 0x1001df54
10933000    10931        M                                           #; (lsu) a6  <-- 1
10934000    10932        M 0x80004364 sw a6, 0(a4)                   #; a4  = 0x1001ff90, 1 ~~> Word[0x1001ff90]
10935000    10933        M 0x80004368 mv a4, a5                      #; a5  = 0x1001ff94, (wrb) a4  <-- 0x1001ff94
10936000    10934        M 0x8000436c bltu a5, a3, -20               #; a5  = 0x1001ff94, a3  = 0x1001ff94, not taken
10937000    10935        M 0x80004370 j 8                            #; goto 0x80004378
10938000    10936        M 0x80004378 bltu a5, a2, 20                #; a5  = 0x1001ff94, a2  = 0x1001ff94, not taken
10939000    10937        M 0x8000437c lw s0, 12(sp)                  #; sp  = 0x1001def8, s0  <~~ Word[0x1001df04]
10940000    10938        M 0x80004380 addi sp, sp, 16                #; sp  = 0x1001def8, (wrb) sp  <-- 0x1001df08
10941000    10939        M 0x80004384 ret                            #; ra  = 0x80003f0c, goto 0x80003f0c
10942000    10940        M 0x80003f0c lw a0, 8(sp)                   #; sp  = 0x1001df08, a0  <~~ Word[0x1001df10], (lsu) s0  <-- 12
10945000    10943        M                                           #; (lsu) a0  <-- 0x1001df48
10946000    10944        M 0x80003f10 add a0, a0, s0                 #; a0  = 0x1001df48, s0  = 12, (wrb) a0  <-- 0x1001df54
10947000    10945        M 0x80003f14 sw a0, 8(sp)                   #; sp  = 0x1001df08, 0x1001df54 ~~> Word[0x1001df10]
10948000    10946        M 0x80003f18 lw a0, 8(sp)                   #; sp  = 0x1001df08, a0  <~~ Word[0x1001df10]
10949000    10947        M 0x80003f1c auipc a1, 2                    #; (wrb) a1  <-- 0x80005f1c
10950000    10948        M 0x80003f20 addi a1, a1, -132              #; a1  = 0x80005f1c, (wrb) a1  <-- 0x80005e98
10951000    10949        M 0x80003f24 auipc a2, 2                    #; (wrb) a2  <-- 0x80005f24
10952000    10950        M 0x80003f28 addi a2, a2, -76               #; a2  = 0x80005f24, (wrb) a2  <-- 0x80005ed8
10953000    10951        M 0x80003f2c sub s0, a2, a1                 #; a2  = 0x80005ed8, a1  = 0x80005e98, (wrb) s0  <-- 64
10954000    10952        M 0x80003f30 li a1, 0                       #; (wrb) a1  <-- 0
10955000    10953        M 0x80003f34 mv a2, s0                      #; s0  = 64, (wrb) a2  <-- 64
10956000    10954        M 0x80003f38 auipc ra, 0                    #; (wrb) ra  <-- 0x80003f38
10957000    10955        M 0x80003f3c jalr 764(ra)                   #; ra  = 0x80003f38, (wrb) ra  <-- 0x80003f40, goto 0x80004234
10958000    10956        M                                           #; (lsu) a0  <-- 0x1001df54
10960000    10958        M 0x80004234 li t1, 15                      #; (wrb) t1  <-- 15
10961000    10959        M 0x80004238 mv a4, a0                      #; a0  = 0x1001df54, (wrb) a4  <-- 0x1001df54
10962000    10960        M 0x8000423c bgeu t1, a2, 60                #; t1  = 15, a2  = 64, not taken
10965000    10963        M 0x80004240 andi a5, a4, 15                #; a4  = 0x1001df54, (wrb) a5  <-- 4
10966000    10964        M 0x80004244 bnez a5, 160                   #; a5  = 4, taken, goto 0x800042e4
10969000    10967        M 0x800042e4 slli a3, a5, 2                 #; a5  = 4, (wrb) a3  <-- 16
10970000    10968        M 0x800042e8 auipc t0, 0                    #; (wrb) t0  <-- 0x800042e8
10971000    10969        M 0x800042ec add a3, a3, t0                 #; a3  = 16, t0  = 0x800042e8, (wrb) a3  <-- 0x800042f8
10972000    10970        M 0x800042f0 mv t0, ra                      #; ra  = 0x80003f40, (wrb) t0  <-- 0x80003f40
10973000    10971        M 0x800042f4 jalr -96(a3)                   #; a3  = 0x800042f8, (wrb) ra  <-- 0x800042f8, goto 0x80004298
10976000    10974        M 0x80004298 sb a1, 11(a4)                  #; a4  = 0x1001df54, 0 ~~> Byte[0x1001df5f]
10977000    10975        M 0x8000429c sb a1, 10(a4)                  #; a4  = 0x1001df54, 0 ~~> Byte[0x1001df5e]
10978000    10976        M 0x800042a0 sb a1, 9(a4)                   #; a4  = 0x1001df54, 0 ~~> Byte[0x1001df5d]
10979000    10977        M 0x800042a4 sb a1, 8(a4)                   #; a4  = 0x1001df54, 0 ~~> Byte[0x1001df5c]
10980000    10978        M 0x800042a8 sb a1, 7(a4)                   #; a4  = 0x1001df54, 0 ~~> Byte[0x1001df5b]
10981000    10979        M 0x800042ac sb a1, 6(a4)                   #; a4  = 0x1001df54, 0 ~~> Byte[0x1001df5a]
10982000    10980        M 0x800042b0 sb a1, 5(a4)                   #; a4  = 0x1001df54, 0 ~~> Byte[0x1001df59]
10983000    10981        M 0x800042b4 sb a1, 4(a4)                   #; a4  = 0x1001df54, 0 ~~> Byte[0x1001df58]
10984000    10982        M 0x800042b8 sb a1, 3(a4)                   #; a4  = 0x1001df54, 0 ~~> Byte[0x1001df57]
10985000    10983        M 0x800042bc sb a1, 2(a4)                   #; a4  = 0x1001df54, 0 ~~> Byte[0x1001df56]
10986000    10984        M 0x800042c0 sb a1, 1(a4)                   #; a4  = 0x1001df54, 0 ~~> Byte[0x1001df55]
10987000    10985        M 0x800042c4 sb a1, 0(a4)                   #; a4  = 0x1001df54, 0 ~~> Byte[0x1001df54]
10988000    10986        M 0x800042c8 ret                            #; ra  = 0x800042f8, goto 0x800042f8
10989000    10987        M 0x800042f8 mv ra, t0                      #; t0  = 0x80003f40, (wrb) ra  <-- 0x80003f40
10990000    10988        M 0x800042fc addi a5, a5, -16               #; a5  = 4, (wrb) a5  <-- -12
10991000    10989        M 0x80004300 sub a4, a4, a5                 #; a4  = 0x1001df54, a5  = -12, (wrb) a4  <-- 0x1001df60
10992000    10990        M 0x80004304 add a2, a2, a5                 #; a2  = 64, a5  = -12, (wrb) a2  <-- 52
10993000    10991        M 0x80004308 bgeu t1, a2, -144              #; t1  = 15, a2  = 52, not taken
10994000    10992        M 0x8000430c j -196                         #; goto 0x80004248
10995000    10993        M 0x80004248 bnez a1, 132                   #; a1  = 0, not taken
10996000    10994        M 0x8000424c andi a3, a2, -16               #; a2  = 52, (wrb) a3  <-- 48
10997000    10995        M 0x80004250 andi a2, a2, 15                #; a2  = 52, (wrb) a2  <-- 4
10998000    10996        M 0x80004254 add a3, a3, a4                 #; a3  = 48, a4  = 0x1001df60, (wrb) a3  <-- 0x1001df90
10999000    10997        M 0x80004258 sw a1, 0(a4)                   #; a4  = 0x1001df60, 0 ~~> Word[0x1001df60]
11000000    10998        M 0x8000425c sw a1, 4(a4)                   #; a4  = 0x1001df60, 0 ~~> Word[0x1001df64]
11001000    10999        M 0x80004260 sw a1, 8(a4)                   #; a4  = 0x1001df60, 0 ~~> Word[0x1001df68]
11002000    11000        M 0x80004264 sw a1, 12(a4)                  #; a4  = 0x1001df60, 0 ~~> Word[0x1001df6c]
11003000    11001        M 0x80004268 addi a4, a4, 16                #; a4  = 0x1001df60, (wrb) a4  <-- 0x1001df70
11004000    11002        M 0x8000426c bltu a4, a3, -20               #; a4  = 0x1001df70, a3  = 0x1001df90, taken, goto 0x80004258
11005000    11003        M 0x80004258 sw a1, 0(a4)                   #; a4  = 0x1001df70, 0 ~~> Word[0x1001df70]
11006000    11004        M 0x8000425c sw a1, 4(a4)                   #; a4  = 0x1001df70, 0 ~~> Word[0x1001df74]
11007000    11005        M 0x80004260 sw a1, 8(a4)                   #; a4  = 0x1001df70, 0 ~~> Word[0x1001df78]
11008000    11006        M 0x80004264 sw a1, 12(a4)                  #; a4  = 0x1001df70, 0 ~~> Word[0x1001df7c]
11009000    11007        M 0x80004268 addi a4, a4, 16                #; a4  = 0x1001df70, (wrb) a4  <-- 0x1001df80
11010000    11008        M 0x8000426c bltu a4, a3, -20               #; a4  = 0x1001df80, a3  = 0x1001df90, taken, goto 0x80004258
11011000    11009        M 0x80004258 sw a1, 0(a4)                   #; a4  = 0x1001df80, 0 ~~> Word[0x1001df80]
11012000    11010        M 0x8000425c sw a1, 4(a4)                   #; a4  = 0x1001df80, 0 ~~> Word[0x1001df84]
11013000    11011        M 0x80004260 sw a1, 8(a4)                   #; a4  = 0x1001df80, 0 ~~> Word[0x1001df88]
11014000    11012        M 0x80004264 sw a1, 12(a4)                  #; a4  = 0x1001df80, 0 ~~> Word[0x1001df8c]
11015000    11013        M 0x80004268 addi a4, a4, 16                #; a4  = 0x1001df80, (wrb) a4  <-- 0x1001df90
11016000    11014        M 0x8000426c bltu a4, a3, -20               #; a4  = 0x1001df90, a3  = 0x1001df90, not taken
11017000    11015        M 0x80004270 bnez a2, 8                     #; a2  = 4, taken, goto 0x80004278
11018000    11016        M 0x80004278 sub a3, t1, a2                 #; t1  = 15, a2  = 4, (wrb) a3  <-- 11
11019000    11017        M 0x8000427c slli a3, a3, 2                 #; a3  = 11, (wrb) a3  <-- 44
11020000    11018        M 0x80004280 auipc t0, 0                    #; (wrb) t0  <-- 0x80004280
11021000    11019        M 0x80004284 add a3, a3, t0                 #; a3  = 44, t0  = 0x80004280, (wrb) a3  <-- 0x800042ac
11022000    11020        M 0x80004288 jr 12(a3)                      #; a3  = 0x800042ac, goto 0x800042b8
11023000    11021        M 0x800042b8 sb a1, 3(a4)                   #; a4  = 0x1001df90, 0 ~~> Byte[0x1001df93]
11024000    11022        M 0x800042bc sb a1, 2(a4)                   #; a4  = 0x1001df90, 0 ~~> Byte[0x1001df92]
11025000    11023        M 0x800042c0 sb a1, 1(a4)                   #; a4  = 0x1001df90, 0 ~~> Byte[0x1001df91]
11026000    11024        M 0x800042c4 sb a1, 0(a4)                   #; a4  = 0x1001df90, 0 ~~> Byte[0x1001df90]
11027000    11025        M 0x800042c8 ret                            #; ra  = 0x80003f40, goto 0x80003f40
11038000    11036        M 0x80003f40 lw a0, 8(sp)                   #; sp  = 0x1001df08, a0  <~~ Word[0x1001df10]
11041000    11039        M                                           #; (lsu) a0  <-- 0x1001df54
11042000    11040        M 0x80003f44 addi a0, a0, 1032              #; a0  = 0x1001df54, (wrb) a0  <-- 0x1001e35c
11043000    11041        M 0x80003f48 li a1, 0                       #; (wrb) a1  <-- 0
11044000    11042        M 0x80003f4c mv a2, s0                      #; s0  = 64, (wrb) a2  <-- 64
11045000    11043        M 0x80003f50 auipc ra, 0                    #; (wrb) ra  <-- 0x80003f50
11046000    11044        M 0x80003f54 jalr 740(ra)                   #; ra  = 0x80003f50, (wrb) ra  <-- 0x80003f58, goto 0x80004234
11047000    11045        M 0x80004234 li t1, 15                      #; (wrb) t1  <-- 15
11048000    11046        M 0x80004238 mv a4, a0                      #; a0  = 0x1001e35c, (wrb) a4  <-- 0x1001e35c
11049000    11047        M 0x8000423c bgeu t1, a2, 60                #; t1  = 15, a2  = 64, not taken
11050000    11048        M 0x80004240 andi a5, a4, 15                #; a4  = 0x1001e35c, (wrb) a5  <-- 12
11051000    11049        M 0x80004244 bnez a5, 160                   #; a5  = 12, taken, goto 0x800042e4
11052000    11050        M 0x800042e4 slli a3, a5, 2                 #; a5  = 12, (wrb) a3  <-- 48
11053000    11051        M 0x800042e8 auipc t0, 0                    #; (wrb) t0  <-- 0x800042e8
11054000    11052        M 0x800042ec add a3, a3, t0                 #; a3  = 48, t0  = 0x800042e8, (wrb) a3  <-- 0x80004318
11055000    11053        M 0x800042f0 mv t0, ra                      #; ra  = 0x80003f58, (wrb) t0  <-- 0x80003f58
11056000    11054        M 0x800042f4 jalr -96(a3)                   #; a3  = 0x80004318, (wrb) ra  <-- 0x800042f8, goto 0x800042b8
11057000    11055        M 0x800042b8 sb a1, 3(a4)                   #; a4  = 0x1001e35c, 0 ~~> Byte[0x1001e35f]
11058000    11056        M 0x800042bc sb a1, 2(a4)                   #; a4  = 0x1001e35c, 0 ~~> Byte[0x1001e35e]
11059000    11057        M 0x800042c0 sb a1, 1(a4)                   #; a4  = 0x1001e35c, 0 ~~> Byte[0x1001e35d]
11060000    11058        M 0x800042c4 sb a1, 0(a4)                   #; a4  = 0x1001e35c, 0 ~~> Byte[0x1001e35c]
11061000    11059        M 0x800042c8 ret                            #; ra  = 0x800042f8, goto 0x800042f8
11062000    11060        M 0x800042f8 mv ra, t0                      #; t0  = 0x80003f58, (wrb) ra  <-- 0x80003f58
11063000    11061        M 0x800042fc addi a5, a5, -16               #; a5  = 12, (wrb) a5  <-- -4
11064000    11062        M 0x80004300 sub a4, a4, a5                 #; a4  = 0x1001e35c, a5  = -4, (wrb) a4  <-- 0x1001e360
11065000    11063        M 0x80004304 add a2, a2, a5                 #; a2  = 64, a5  = -4, (wrb) a2  <-- 60
11066000    11064        M 0x80004308 bgeu t1, a2, -144              #; t1  = 15, a2  = 60, not taken
11067000    11065        M 0x8000430c j -196                         #; goto 0x80004248
11068000    11066        M 0x80004248 bnez a1, 132                   #; a1  = 0, not taken
11069000    11067        M 0x8000424c andi a3, a2, -16               #; a2  = 60, (wrb) a3  <-- 48
11070000    11068        M 0x80004250 andi a2, a2, 15                #; a2  = 60, (wrb) a2  <-- 12
11071000    11069        M 0x80004254 add a3, a3, a4                 #; a3  = 48, a4  = 0x1001e360, (wrb) a3  <-- 0x1001e390
11072000    11070        M 0x80004258 sw a1, 0(a4)                   #; a4  = 0x1001e360, 0 ~~> Word[0x1001e360]
11073000    11071        M 0x8000425c sw a1, 4(a4)                   #; a4  = 0x1001e360, 0 ~~> Word[0x1001e364]
11074000    11072        M 0x80004260 sw a1, 8(a4)                   #; a4  = 0x1001e360, 0 ~~> Word[0x1001e368]
11075000    11073        M 0x80004264 sw a1, 12(a4)                  #; a4  = 0x1001e360, 0 ~~> Word[0x1001e36c]
11076000    11074        M 0x80004268 addi a4, a4, 16                #; a4  = 0x1001e360, (wrb) a4  <-- 0x1001e370
11077000    11075        M 0x8000426c bltu a4, a3, -20               #; a4  = 0x1001e370, a3  = 0x1001e390, taken, goto 0x80004258
11078000    11076        M 0x80004258 sw a1, 0(a4)                   #; a4  = 0x1001e370, 0 ~~> Word[0x1001e370]
11079000    11077        M 0x8000425c sw a1, 4(a4)                   #; a4  = 0x1001e370, 0 ~~> Word[0x1001e374]
11080000    11078        M 0x80004260 sw a1, 8(a4)                   #; a4  = 0x1001e370, 0 ~~> Word[0x1001e378]
11081000    11079        M 0x80004264 sw a1, 12(a4)                  #; a4  = 0x1001e370, 0 ~~> Word[0x1001e37c]
11082000    11080        M 0x80004268 addi a4, a4, 16                #; a4  = 0x1001e370, (wrb) a4  <-- 0x1001e380
11083000    11081        M 0x8000426c bltu a4, a3, -20               #; a4  = 0x1001e380, a3  = 0x1001e390, taken, goto 0x80004258
11084000    11082        M 0x80004258 sw a1, 0(a4)                   #; a4  = 0x1001e380, 0 ~~> Word[0x1001e380]
11085000    11083        M 0x8000425c sw a1, 4(a4)                   #; a4  = 0x1001e380, 0 ~~> Word[0x1001e384]
11086000    11084        M 0x80004260 sw a1, 8(a4)                   #; a4  = 0x1001e380, 0 ~~> Word[0x1001e388]
11087000    11085        M 0x80004264 sw a1, 12(a4)                  #; a4  = 0x1001e380, 0 ~~> Word[0x1001e38c]
11088000    11086        M 0x80004268 addi a4, a4, 16                #; a4  = 0x1001e380, (wrb) a4  <-- 0x1001e390
11089000    11087        M 0x8000426c bltu a4, a3, -20               #; a4  = 0x1001e390, a3  = 0x1001e390, not taken
11090000    11088        M 0x80004270 bnez a2, 8                     #; a2  = 12, taken, goto 0x80004278
11091000    11089        M 0x80004278 sub a3, t1, a2                 #; t1  = 15, a2  = 12, (wrb) a3  <-- 3
11092000    11090        M 0x8000427c slli a3, a3, 2                 #; a3  = 3, (wrb) a3  <-- 12
11093000    11091        M 0x80004280 auipc t0, 0                    #; (wrb) t0  <-- 0x80004280
11094000    11092        M 0x80004284 add a3, a3, t0                 #; a3  = 12, t0  = 0x80004280, (wrb) a3  <-- 0x8000428c
11095000    11093        M 0x80004288 jr 12(a3)                      #; a3  = 0x8000428c, goto 0x80004298
11096000    11094        M 0x80004298 sb a1, 11(a4)                  #; a4  = 0x1001e390, 0 ~~> Byte[0x1001e39b]
11097000    11095        M 0x8000429c sb a1, 10(a4)                  #; a4  = 0x1001e390, 0 ~~> Byte[0x1001e39a]
11098000    11096        M 0x800042a0 sb a1, 9(a4)                   #; a4  = 0x1001e390, 0 ~~> Byte[0x1001e399]
11099000    11097        M 0x800042a4 sb a1, 8(a4)                   #; a4  = 0x1001e390, 0 ~~> Byte[0x1001e398]
11100000    11098        M 0x800042a8 sb a1, 7(a4)                   #; a4  = 0x1001e390, 0 ~~> Byte[0x1001e397]
11101000    11099        M 0x800042ac sb a1, 6(a4)                   #; a4  = 0x1001e390, 0 ~~> Byte[0x1001e396]
11102000    11100        M 0x800042b0 sb a1, 5(a4)                   #; a4  = 0x1001e390, 0 ~~> Byte[0x1001e395]
11103000    11101        M 0x800042b4 sb a1, 4(a4)                   #; a4  = 0x1001e390, 0 ~~> Byte[0x1001e394]
11104000    11102        M 0x800042b8 sb a1, 3(a4)                   #; a4  = 0x1001e390, 0 ~~> Byte[0x1001e393]
11105000    11103        M 0x800042bc sb a1, 2(a4)                   #; a4  = 0x1001e390, 0 ~~> Byte[0x1001e392]
11106000    11104        M 0x800042c0 sb a1, 1(a4)                   #; a4  = 0x1001e390, 0 ~~> Byte[0x1001e391]
11107000    11105        M 0x800042c4 sb a1, 0(a4)                   #; a4  = 0x1001e390, 0 ~~> Byte[0x1001e390]
11108000    11106        M 0x800042c8 ret                            #; ra  = 0x80003f58, goto 0x80003f58
11109000    11107        M 0x80003f58 lw a0, 8(sp)                   #; sp  = 0x1001df08, a0  <~~ Word[0x1001df10]
11112000    11110        M                                           #; (lsu) a0  <-- 0x1001df54
11113000    11111        M 0x80003f5c add a0, a0, s1                 #; a0  = 0x1001df54, s1  = 2064, (wrb) a0  <-- 0x1001e764
11114000    11112        M 0x80003f60 li a1, 0                       #; (wrb) a1  <-- 0
11115000    11113        M 0x80003f64 mv a2, s0                      #; s0  = 64, (wrb) a2  <-- 64
11116000    11114        M 0x80003f68 auipc ra, 0                    #; (wrb) ra  <-- 0x80003f68
11117000    11115        M 0x80003f6c jalr 716(ra)                   #; ra  = 0x80003f68, (wrb) ra  <-- 0x80003f70, goto 0x80004234
11118000    11116        M 0x80004234 li t1, 15                      #; (wrb) t1  <-- 15
11119000    11117        M 0x80004238 mv a4, a0                      #; a0  = 0x1001e764, (wrb) a4  <-- 0x1001e764
11120000    11118        M 0x8000423c bgeu t1, a2, 60                #; t1  = 15, a2  = 64, not taken
11121000    11119        M 0x80004240 andi a5, a4, 15                #; a4  = 0x1001e764, (wrb) a5  <-- 4
11122000    11120        M 0x80004244 bnez a5, 160                   #; a5  = 4, taken, goto 0x800042e4
11123000    11121        M 0x800042e4 slli a3, a5, 2                 #; a5  = 4, (wrb) a3  <-- 16
11124000    11122        M 0x800042e8 auipc t0, 0                    #; (wrb) t0  <-- 0x800042e8
11125000    11123        M 0x800042ec add a3, a3, t0                 #; a3  = 16, t0  = 0x800042e8, (wrb) a3  <-- 0x800042f8
11126000    11124        M 0x800042f0 mv t0, ra                      #; ra  = 0x80003f70, (wrb) t0  <-- 0x80003f70
11127000    11125        M 0x800042f4 jalr -96(a3)                   #; a3  = 0x800042f8, (wrb) ra  <-- 0x800042f8, goto 0x80004298
11128000    11126        M 0x80004298 sb a1, 11(a4)                  #; a4  = 0x1001e764, 0 ~~> Byte[0x1001e76f]
11129000    11127        M 0x8000429c sb a1, 10(a4)                  #; a4  = 0x1001e764, 0 ~~> Byte[0x1001e76e]
11132000    11130        M 0x800042a0 sb a1, 9(a4)                   #; a4  = 0x1001e764, 0 ~~> Byte[0x1001e76d]
11134000    11132        M 0x800042a4 sb a1, 8(a4)                   #; a4  = 0x1001e764, 0 ~~> Byte[0x1001e76c]
11135000    11133        M 0x800042a8 sb a1, 7(a4)                   #; a4  = 0x1001e764, 0 ~~> Byte[0x1001e76b]
11136000    11134        M 0x800042ac sb a1, 6(a4)                   #; a4  = 0x1001e764, 0 ~~> Byte[0x1001e76a]
11137000    11135        M 0x800042b0 sb a1, 5(a4)                   #; a4  = 0x1001e764, 0 ~~> Byte[0x1001e769]
11138000    11136        M 0x800042b4 sb a1, 4(a4)                   #; a4  = 0x1001e764, 0 ~~> Byte[0x1001e768]
11139000    11137        M 0x800042b8 sb a1, 3(a4)                   #; a4  = 0x1001e764, 0 ~~> Byte[0x1001e767]
11140000    11138        M 0x800042bc sb a1, 2(a4)                   #; a4  = 0x1001e764, 0 ~~> Byte[0x1001e766]
11141000    11139        M 0x800042c0 sb a1, 1(a4)                   #; a4  = 0x1001e764, 0 ~~> Byte[0x1001e765]
11142000    11140        M 0x800042c4 sb a1, 0(a4)                   #; a4  = 0x1001e764, 0 ~~> Byte[0x1001e764]
11143000    11141        M 0x800042c8 ret                            #; ra  = 0x800042f8, goto 0x800042f8
11144000    11142        M 0x800042f8 mv ra, t0                      #; t0  = 0x80003f70, (wrb) ra  <-- 0x80003f70
11145000    11143        M 0x800042fc addi a5, a5, -16               #; a5  = 4, (wrb) a5  <-- -12
11146000    11144        M 0x80004300 sub a4, a4, a5                 #; a4  = 0x1001e764, a5  = -12, (wrb) a4  <-- 0x1001e770
11147000    11145        M 0x80004304 add a2, a2, a5                 #; a2  = 64, a5  = -12, (wrb) a2  <-- 52
11148000    11146        M 0x80004308 bgeu t1, a2, -144              #; t1  = 15, a2  = 52, not taken
11149000    11147        M 0x8000430c j -196                         #; goto 0x80004248
11150000    11148        M 0x80004248 bnez a1, 132                   #; a1  = 0, not taken
11151000    11149        M 0x8000424c andi a3, a2, -16               #; a2  = 52, (wrb) a3  <-- 48
11152000    11150        M 0x80004250 andi a2, a2, 15                #; a2  = 52, (wrb) a2  <-- 4
11153000    11151        M 0x80004254 add a3, a3, a4                 #; a3  = 48, a4  = 0x1001e770, (wrb) a3  <-- 0x1001e7a0
11154000    11152        M 0x80004258 sw a1, 0(a4)                   #; a4  = 0x1001e770, 0 ~~> Word[0x1001e770]
11155000    11153        M 0x8000425c sw a1, 4(a4)                   #; a4  = 0x1001e770, 0 ~~> Word[0x1001e774]
11156000    11154        M 0x80004260 sw a1, 8(a4)                   #; a4  = 0x1001e770, 0 ~~> Word[0x1001e778]
11157000    11155        M 0x80004264 sw a1, 12(a4)                  #; a4  = 0x1001e770, 0 ~~> Word[0x1001e77c]
11158000    11156        M 0x80004268 addi a4, a4, 16                #; a4  = 0x1001e770, (wrb) a4  <-- 0x1001e780
11159000    11157        M 0x8000426c bltu a4, a3, -20               #; a4  = 0x1001e780, a3  = 0x1001e7a0, taken, goto 0x80004258
11160000    11158        M 0x80004258 sw a1, 0(a4)                   #; a4  = 0x1001e780, 0 ~~> Word[0x1001e780]
11161000    11159        M 0x8000425c sw a1, 4(a4)                   #; a4  = 0x1001e780, 0 ~~> Word[0x1001e784]
11162000    11160        M 0x80004260 sw a1, 8(a4)                   #; a4  = 0x1001e780, 0 ~~> Word[0x1001e788]
11163000    11161        M 0x80004264 sw a1, 12(a4)                  #; a4  = 0x1001e780, 0 ~~> Word[0x1001e78c]
11164000    11162        M 0x80004268 addi a4, a4, 16                #; a4  = 0x1001e780, (wrb) a4  <-- 0x1001e790
11165000    11163        M 0x8000426c bltu a4, a3, -20               #; a4  = 0x1001e790, a3  = 0x1001e7a0, taken, goto 0x80004258
11166000    11164        M 0x80004258 sw a1, 0(a4)                   #; a4  = 0x1001e790, 0 ~~> Word[0x1001e790]
11167000    11165        M 0x8000425c sw a1, 4(a4)                   #; a4  = 0x1001e790, 0 ~~> Word[0x1001e794]
11168000    11166        M 0x80004260 sw a1, 8(a4)                   #; a4  = 0x1001e790, 0 ~~> Word[0x1001e798]
11169000    11167        M 0x80004264 sw a1, 12(a4)                  #; a4  = 0x1001e790, 0 ~~> Word[0x1001e79c]
11170000    11168        M 0x80004268 addi a4, a4, 16                #; a4  = 0x1001e790, (wrb) a4  <-- 0x1001e7a0
11171000    11169        M 0x8000426c bltu a4, a3, -20               #; a4  = 0x1001e7a0, a3  = 0x1001e7a0, not taken
11172000    11170        M 0x80004270 bnez a2, 8                     #; a2  = 4, taken, goto 0x80004278
11173000    11171        M 0x80004278 sub a3, t1, a2                 #; t1  = 15, a2  = 4, (wrb) a3  <-- 11
11174000    11172        M 0x8000427c slli a3, a3, 2                 #; a3  = 11, (wrb) a3  <-- 44
11175000    11173        M 0x80004280 auipc t0, 0                    #; (wrb) t0  <-- 0x80004280
11176000    11174        M 0x80004284 add a3, a3, t0                 #; a3  = 44, t0  = 0x80004280, (wrb) a3  <-- 0x800042ac
11177000    11175        M 0x80004288 jr 12(a3)                      #; a3  = 0x800042ac, goto 0x800042b8
11178000    11176        M 0x800042b8 sb a1, 3(a4)                   #; a4  = 0x1001e7a0, 0 ~~> Byte[0x1001e7a3]
11179000    11177        M 0x800042bc sb a1, 2(a4)                   #; a4  = 0x1001e7a0, 0 ~~> Byte[0x1001e7a2]
11180000    11178        M 0x800042c0 sb a1, 1(a4)                   #; a4  = 0x1001e7a0, 0 ~~> Byte[0x1001e7a1]
11181000    11179        M 0x800042c4 sb a1, 0(a4)                   #; a4  = 0x1001e7a0, 0 ~~> Byte[0x1001e7a0]
11182000    11180        M 0x800042c8 ret                            #; ra  = 0x80003f70, goto 0x80003f70
11183000    11181        M 0x80003f70 lw a0, 8(sp)                   #; sp  = 0x1001df08, a0  <~~ Word[0x1001df10]
11186000    11184        M                                           #; (lsu) a0  <-- 0x1001df54
11187000    11185        M 0x80003f74 add a0, a0, s6                 #; a0  = 0x1001df54, s6  = 3096, (wrb) a0  <-- 0x1001eb6c
11188000    11186        M 0x80003f78 li a1, 0                       #; (wrb) a1  <-- 0
11189000    11187        M 0x80003f7c mv a2, s0                      #; s0  = 64, (wrb) a2  <-- 64
11203000    11201        M 0x80003f80 auipc ra, 0                    #; (wrb) ra  <-- 0x80003f80
11204000    11202        M 0x80003f84 jalr 692(ra)                   #; ra  = 0x80003f80, (wrb) ra  <-- 0x80003f88, goto 0x80004234
11205000    11203        M 0x80004234 li t1, 15                      #; (wrb) t1  <-- 15
11206000    11204        M 0x80004238 mv a4, a0                      #; a0  = 0x1001eb6c, (wrb) a4  <-- 0x1001eb6c
11207000    11205        M 0x8000423c bgeu t1, a2, 60                #; t1  = 15, a2  = 64, not taken
11208000    11206        M 0x80004240 andi a5, a4, 15                #; a4  = 0x1001eb6c, (wrb) a5  <-- 12
11209000    11207        M 0x80004244 bnez a5, 160                   #; a5  = 12, taken, goto 0x800042e4
11210000    11208        M 0x800042e4 slli a3, a5, 2                 #; a5  = 12, (wrb) a3  <-- 48
11211000    11209        M 0x800042e8 auipc t0, 0                    #; (wrb) t0  <-- 0x800042e8
11212000    11210        M 0x800042ec add a3, a3, t0                 #; a3  = 48, t0  = 0x800042e8, (wrb) a3  <-- 0x80004318
11213000    11211        M 0x800042f0 mv t0, ra                      #; ra  = 0x80003f88, (wrb) t0  <-- 0x80003f88
11214000    11212        M 0x800042f4 jalr -96(a3)                   #; a3  = 0x80004318, (wrb) ra  <-- 0x800042f8, goto 0x800042b8
11215000    11213        M 0x800042b8 sb a1, 3(a4)                   #; a4  = 0x1001eb6c, 0 ~~> Byte[0x1001eb6f]
11216000    11214        M 0x800042bc sb a1, 2(a4)                   #; a4  = 0x1001eb6c, 0 ~~> Byte[0x1001eb6e]
11217000    11215        M 0x800042c0 sb a1, 1(a4)                   #; a4  = 0x1001eb6c, 0 ~~> Byte[0x1001eb6d]
11218000    11216        M 0x800042c4 sb a1, 0(a4)                   #; a4  = 0x1001eb6c, 0 ~~> Byte[0x1001eb6c]
11219000    11217        M 0x800042c8 ret                            #; ra  = 0x800042f8, goto 0x800042f8
11220000    11218        M 0x800042f8 mv ra, t0                      #; t0  = 0x80003f88, (wrb) ra  <-- 0x80003f88
11221000    11219        M 0x800042fc addi a5, a5, -16               #; a5  = 12, (wrb) a5  <-- -4
11222000    11220        M 0x80004300 sub a4, a4, a5                 #; a4  = 0x1001eb6c, a5  = -4, (wrb) a4  <-- 0x1001eb70
11223000    11221        M 0x80004304 add a2, a2, a5                 #; a2  = 64, a5  = -4, (wrb) a2  <-- 60
11224000    11222        M 0x80004308 bgeu t1, a2, -144              #; t1  = 15, a2  = 60, not taken
11225000    11223        M 0x8000430c j -196                         #; goto 0x80004248
11226000    11224        M 0x80004248 bnez a1, 132                   #; a1  = 0, not taken
11227000    11225        M 0x8000424c andi a3, a2, -16               #; a2  = 60, (wrb) a3  <-- 48
11228000    11226        M 0x80004250 andi a2, a2, 15                #; a2  = 60, (wrb) a2  <-- 12
11229000    11227        M 0x80004254 add a3, a3, a4                 #; a3  = 48, a4  = 0x1001eb70, (wrb) a3  <-- 0x1001eba0
11230000    11228        M 0x80004258 sw a1, 0(a4)                   #; a4  = 0x1001eb70, 0 ~~> Word[0x1001eb70]
11231000    11229        M 0x8000425c sw a1, 4(a4)                   #; a4  = 0x1001eb70, 0 ~~> Word[0x1001eb74]
11232000    11230        M 0x80004260 sw a1, 8(a4)                   #; a4  = 0x1001eb70, 0 ~~> Word[0x1001eb78]
11233000    11231        M 0x80004264 sw a1, 12(a4)                  #; a4  = 0x1001eb70, 0 ~~> Word[0x1001eb7c]
11234000    11232        M 0x80004268 addi a4, a4, 16                #; a4  = 0x1001eb70, (wrb) a4  <-- 0x1001eb80
11235000    11233        M 0x8000426c bltu a4, a3, -20               #; a4  = 0x1001eb80, a3  = 0x1001eba0, taken, goto 0x80004258
11236000    11234        M 0x80004258 sw a1, 0(a4)                   #; a4  = 0x1001eb80, 0 ~~> Word[0x1001eb80]
11237000    11235        M 0x8000425c sw a1, 4(a4)                   #; a4  = 0x1001eb80, 0 ~~> Word[0x1001eb84]
11238000    11236        M 0x80004260 sw a1, 8(a4)                   #; a4  = 0x1001eb80, 0 ~~> Word[0x1001eb88]
11239000    11237        M 0x80004264 sw a1, 12(a4)                  #; a4  = 0x1001eb80, 0 ~~> Word[0x1001eb8c]
11240000    11238        M 0x80004268 addi a4, a4, 16                #; a4  = 0x1001eb80, (wrb) a4  <-- 0x1001eb90
11241000    11239        M 0x8000426c bltu a4, a3, -20               #; a4  = 0x1001eb90, a3  = 0x1001eba0, taken, goto 0x80004258
11242000    11240        M 0x80004258 sw a1, 0(a4)                   #; a4  = 0x1001eb90, 0 ~~> Word[0x1001eb90]
11243000    11241        M 0x8000425c sw a1, 4(a4)                   #; a4  = 0x1001eb90, 0 ~~> Word[0x1001eb94]
11244000    11242        M 0x80004260 sw a1, 8(a4)                   #; a4  = 0x1001eb90, 0 ~~> Word[0x1001eb98]
11245000    11243        M 0x80004264 sw a1, 12(a4)                  #; a4  = 0x1001eb90, 0 ~~> Word[0x1001eb9c]
11246000    11244        M 0x80004268 addi a4, a4, 16                #; a4  = 0x1001eb90, (wrb) a4  <-- 0x1001eba0
11247000    11245        M 0x8000426c bltu a4, a3, -20               #; a4  = 0x1001eba0, a3  = 0x1001eba0, not taken
11248000    11246        M 0x80004270 bnez a2, 8                     #; a2  = 12, taken, goto 0x80004278
11249000    11247        M 0x80004278 sub a3, t1, a2                 #; t1  = 15, a2  = 12, (wrb) a3  <-- 3
11250000    11248        M 0x8000427c slli a3, a3, 2                 #; a3  = 3, (wrb) a3  <-- 12
11251000    11249        M 0x80004280 auipc t0, 0                    #; (wrb) t0  <-- 0x80004280
11252000    11250        M 0x80004284 add a3, a3, t0                 #; a3  = 12, t0  = 0x80004280, (wrb) a3  <-- 0x8000428c
11253000    11251        M 0x80004288 jr 12(a3)                      #; a3  = 0x8000428c, goto 0x80004298
11254000    11252        M 0x80004298 sb a1, 11(a4)                  #; a4  = 0x1001eba0, 0 ~~> Byte[0x1001ebab]
11255000    11253        M 0x8000429c sb a1, 10(a4)                  #; a4  = 0x1001eba0, 0 ~~> Byte[0x1001ebaa]
11256000    11254        M 0x800042a0 sb a1, 9(a4)                   #; a4  = 0x1001eba0, 0 ~~> Byte[0x1001eba9]
11257000    11255        M 0x800042a4 sb a1, 8(a4)                   #; a4  = 0x1001eba0, 0 ~~> Byte[0x1001eba8]
11258000    11256        M 0x800042a8 sb a1, 7(a4)                   #; a4  = 0x1001eba0, 0 ~~> Byte[0x1001eba7]
11259000    11257        M 0x800042ac sb a1, 6(a4)                   #; a4  = 0x1001eba0, 0 ~~> Byte[0x1001eba6]
11260000    11258        M 0x800042b0 sb a1, 5(a4)                   #; a4  = 0x1001eba0, 0 ~~> Byte[0x1001eba5]
11261000    11259        M 0x800042b4 sb a1, 4(a4)                   #; a4  = 0x1001eba0, 0 ~~> Byte[0x1001eba4]
11262000    11260        M 0x800042b8 sb a1, 3(a4)                   #; a4  = 0x1001eba0, 0 ~~> Byte[0x1001eba3]
11263000    11261        M 0x800042bc sb a1, 2(a4)                   #; a4  = 0x1001eba0, 0 ~~> Byte[0x1001eba2]
11264000    11262        M 0x800042c0 sb a1, 1(a4)                   #; a4  = 0x1001eba0, 0 ~~> Byte[0x1001eba1]
11265000    11263        M 0x800042c4 sb a1, 0(a4)                   #; a4  = 0x1001eba0, 0 ~~> Byte[0x1001eba0]
11266000    11264        M 0x800042c8 ret                            #; ra  = 0x80003f88, goto 0x80003f88
11267000    11265        M 0x80003f88 lw a0, 8(sp)                   #; sp  = 0x1001df08, a0  <~~ Word[0x1001df10]
11270000    11268        M                                           #; (lsu) a0  <-- 0x1001df54
11271000    11269        M 0x80003f8c add a0, a0, s7                 #; a0  = 0x1001df54, s7  = 4128, (wrb) a0  <-- 0x1001ef74
11272000    11270        M 0x80003f90 li a1, 0                       #; (wrb) a1  <-- 0
11273000    11271        M 0x80003f94 mv a2, s0                      #; s0  = 64, (wrb) a2  <-- 64
11274000    11272        M 0x80003f98 auipc ra, 0                    #; (wrb) ra  <-- 0x80003f98
11275000    11273        M 0x80003f9c jalr 668(ra)                   #; ra  = 0x80003f98, (wrb) ra  <-- 0x80003fa0, goto 0x80004234
11276000    11274        M 0x80004234 li t1, 15                      #; (wrb) t1  <-- 15
11277000    11275        M 0x80004238 mv a4, a0                      #; a0  = 0x1001ef74, (wrb) a4  <-- 0x1001ef74
11278000    11276        M 0x8000423c bgeu t1, a2, 60                #; t1  = 15, a2  = 64, not taken
11279000    11277        M 0x80004240 andi a5, a4, 15                #; a4  = 0x1001ef74, (wrb) a5  <-- 4
11280000    11278        M 0x80004244 bnez a5, 160                   #; a5  = 4, taken, goto 0x800042e4
11281000    11279        M 0x800042e4 slli a3, a5, 2                 #; a5  = 4, (wrb) a3  <-- 16
11282000    11280        M 0x800042e8 auipc t0, 0                    #; (wrb) t0  <-- 0x800042e8
11283000    11281        M 0x800042ec add a3, a3, t0                 #; a3  = 16, t0  = 0x800042e8, (wrb) a3  <-- 0x800042f8
11284000    11282        M 0x800042f0 mv t0, ra                      #; ra  = 0x80003fa0, (wrb) t0  <-- 0x80003fa0
11285000    11283        M 0x800042f4 jalr -96(a3)                   #; a3  = 0x800042f8, (wrb) ra  <-- 0x800042f8, goto 0x80004298
11286000    11284        M 0x80004298 sb a1, 11(a4)                  #; a4  = 0x1001ef74, 0 ~~> Byte[0x1001ef7f]
11287000    11285        M 0x8000429c sb a1, 10(a4)                  #; a4  = 0x1001ef74, 0 ~~> Byte[0x1001ef7e]
11289000    11287        M 0x800042a0 sb a1, 9(a4)                   #; a4  = 0x1001ef74, 0 ~~> Byte[0x1001ef7d]
11291000    11289        M 0x800042a4 sb a1, 8(a4)                   #; a4  = 0x1001ef74, 0 ~~> Byte[0x1001ef7c]
11292000    11290        M 0x800042a8 sb a1, 7(a4)                   #; a4  = 0x1001ef74, 0 ~~> Byte[0x1001ef7b]
11293000    11291        M 0x800042ac sb a1, 6(a4)                   #; a4  = 0x1001ef74, 0 ~~> Byte[0x1001ef7a]
11294000    11292        M 0x800042b0 sb a1, 5(a4)                   #; a4  = 0x1001ef74, 0 ~~> Byte[0x1001ef79]
11295000    11293        M 0x800042b4 sb a1, 4(a4)                   #; a4  = 0x1001ef74, 0 ~~> Byte[0x1001ef78]
11296000    11294        M 0x800042b8 sb a1, 3(a4)                   #; a4  = 0x1001ef74, 0 ~~> Byte[0x1001ef77]
11297000    11295        M 0x800042bc sb a1, 2(a4)                   #; a4  = 0x1001ef74, 0 ~~> Byte[0x1001ef76]
11298000    11296        M 0x800042c0 sb a1, 1(a4)                   #; a4  = 0x1001ef74, 0 ~~> Byte[0x1001ef75]
11299000    11297        M 0x800042c4 sb a1, 0(a4)                   #; a4  = 0x1001ef74, 0 ~~> Byte[0x1001ef74]
11300000    11298        M 0x800042c8 ret                            #; ra  = 0x800042f8, goto 0x800042f8
11301000    11299        M 0x800042f8 mv ra, t0                      #; t0  = 0x80003fa0, (wrb) ra  <-- 0x80003fa0
11302000    11300        M 0x800042fc addi a5, a5, -16               #; a5  = 4, (wrb) a5  <-- -12
11303000    11301        M 0x80004300 sub a4, a4, a5                 #; a4  = 0x1001ef74, a5  = -12, (wrb) a4  <-- 0x1001ef80
11304000    11302        M 0x80004304 add a2, a2, a5                 #; a2  = 64, a5  = -12, (wrb) a2  <-- 52
11305000    11303        M 0x80004308 bgeu t1, a2, -144              #; t1  = 15, a2  = 52, not taken
11306000    11304        M 0x8000430c j -196                         #; goto 0x80004248
11307000    11305        M 0x80004248 bnez a1, 132                   #; a1  = 0, not taken
11308000    11306        M 0x8000424c andi a3, a2, -16               #; a2  = 52, (wrb) a3  <-- 48
11309000    11307        M 0x80004250 andi a2, a2, 15                #; a2  = 52, (wrb) a2  <-- 4
11310000    11308        M 0x80004254 add a3, a3, a4                 #; a3  = 48, a4  = 0x1001ef80, (wrb) a3  <-- 0x1001efb0
11311000    11309        M 0x80004258 sw a1, 0(a4)                   #; a4  = 0x1001ef80, 0 ~~> Word[0x1001ef80]
11312000    11310        M 0x8000425c sw a1, 4(a4)                   #; a4  = 0x1001ef80, 0 ~~> Word[0x1001ef84]
11313000    11311        M 0x80004260 sw a1, 8(a4)                   #; a4  = 0x1001ef80, 0 ~~> Word[0x1001ef88]
11314000    11312        M 0x80004264 sw a1, 12(a4)                  #; a4  = 0x1001ef80, 0 ~~> Word[0x1001ef8c]
11315000    11313        M 0x80004268 addi a4, a4, 16                #; a4  = 0x1001ef80, (wrb) a4  <-- 0x1001ef90
11316000    11314        M 0x8000426c bltu a4, a3, -20               #; a4  = 0x1001ef90, a3  = 0x1001efb0, taken, goto 0x80004258
11317000    11315        M 0x80004258 sw a1, 0(a4)                   #; a4  = 0x1001ef90, 0 ~~> Word[0x1001ef90]
11318000    11316        M 0x8000425c sw a1, 4(a4)                   #; a4  = 0x1001ef90, 0 ~~> Word[0x1001ef94]
11319000    11317        M 0x80004260 sw a1, 8(a4)                   #; a4  = 0x1001ef90, 0 ~~> Word[0x1001ef98]
11320000    11318        M 0x80004264 sw a1, 12(a4)                  #; a4  = 0x1001ef90, 0 ~~> Word[0x1001ef9c]
11321000    11319        M 0x80004268 addi a4, a4, 16                #; a4  = 0x1001ef90, (wrb) a4  <-- 0x1001efa0
11322000    11320        M 0x8000426c bltu a4, a3, -20               #; a4  = 0x1001efa0, a3  = 0x1001efb0, taken, goto 0x80004258
11323000    11321        M 0x80004258 sw a1, 0(a4)                   #; a4  = 0x1001efa0, 0 ~~> Word[0x1001efa0]
11324000    11322        M 0x8000425c sw a1, 4(a4)                   #; a4  = 0x1001efa0, 0 ~~> Word[0x1001efa4]
11325000    11323        M 0x80004260 sw a1, 8(a4)                   #; a4  = 0x1001efa0, 0 ~~> Word[0x1001efa8]
11326000    11324        M 0x80004264 sw a1, 12(a4)                  #; a4  = 0x1001efa0, 0 ~~> Word[0x1001efac]
11327000    11325        M 0x80004268 addi a4, a4, 16                #; a4  = 0x1001efa0, (wrb) a4  <-- 0x1001efb0
11328000    11326        M 0x8000426c bltu a4, a3, -20               #; a4  = 0x1001efb0, a3  = 0x1001efb0, not taken
11329000    11327        M 0x80004270 bnez a2, 8                     #; a2  = 4, taken, goto 0x80004278
11330000    11328        M 0x80004278 sub a3, t1, a2                 #; t1  = 15, a2  = 4, (wrb) a3  <-- 11
11331000    11329        M 0x8000427c slli a3, a3, 2                 #; a3  = 11, (wrb) a3  <-- 44
11332000    11330        M 0x80004280 auipc t0, 0                    #; (wrb) t0  <-- 0x80004280
11333000    11331        M 0x80004284 add a3, a3, t0                 #; a3  = 44, t0  = 0x80004280, (wrb) a3  <-- 0x800042ac
11334000    11332        M 0x80004288 jr 12(a3)                      #; a3  = 0x800042ac, goto 0x800042b8
11335000    11333        M 0x800042b8 sb a1, 3(a4)                   #; a4  = 0x1001efb0, 0 ~~> Byte[0x1001efb3]
11336000    11334        M 0x800042bc sb a1, 2(a4)                   #; a4  = 0x1001efb0, 0 ~~> Byte[0x1001efb2]
11337000    11335        M 0x800042c0 sb a1, 1(a4)                   #; a4  = 0x1001efb0, 0 ~~> Byte[0x1001efb1]
11338000    11336        M 0x800042c4 sb a1, 0(a4)                   #; a4  = 0x1001efb0, 0 ~~> Byte[0x1001efb0]
11339000    11337        M 0x800042c8 ret                            #; ra  = 0x80003fa0, goto 0x80003fa0
11340000    11338        M 0x80003fa0 lw a0, 8(sp)                   #; sp  = 0x1001df08, a0  <~~ Word[0x1001df10]
11343000    11341        M                                           #; (lsu) a0  <-- 0x1001df54
11344000    11342        M 0x80003fa4 add a0, a0, s8                 #; a0  = 0x1001df54, s8  = 5160, (wrb) a0  <-- 0x1001f37c
11345000    11343        M 0x80003fa8 li a1, 0                       #; (wrb) a1  <-- 0
11346000    11344        M 0x80003fac mv a2, s0                      #; s0  = 64, (wrb) a2  <-- 64
11347000    11345        M 0x80003fb0 auipc ra, 0                    #; (wrb) ra  <-- 0x80003fb0
11348000    11346        M 0x80003fb4 jalr 644(ra)                   #; ra  = 0x80003fb0, (wrb) ra  <-- 0x80003fb8, goto 0x80004234
11349000    11347        M 0x80004234 li t1, 15                      #; (wrb) t1  <-- 15
11350000    11348        M 0x80004238 mv a4, a0                      #; a0  = 0x1001f37c, (wrb) a4  <-- 0x1001f37c
11351000    11349        M 0x8000423c bgeu t1, a2, 60                #; t1  = 15, a2  = 64, not taken
11352000    11350        M 0x80004240 andi a5, a4, 15                #; a4  = 0x1001f37c, (wrb) a5  <-- 12
11353000    11351        M 0x80004244 bnez a5, 160                   #; a5  = 12, taken, goto 0x800042e4
11354000    11352        M 0x800042e4 slli a3, a5, 2                 #; a5  = 12, (wrb) a3  <-- 48
11355000    11353        M 0x800042e8 auipc t0, 0                    #; (wrb) t0  <-- 0x800042e8
11356000    11354        M 0x800042ec add a3, a3, t0                 #; a3  = 48, t0  = 0x800042e8, (wrb) a3  <-- 0x80004318
11357000    11355        M 0x800042f0 mv t0, ra                      #; ra  = 0x80003fb8, (wrb) t0  <-- 0x80003fb8
11358000    11356        M 0x800042f4 jalr -96(a3)                   #; a3  = 0x80004318, (wrb) ra  <-- 0x800042f8, goto 0x800042b8
11359000    11357        M 0x800042b8 sb a1, 3(a4)                   #; a4  = 0x1001f37c, 0 ~~> Byte[0x1001f37f]
11360000    11358        M 0x800042bc sb a1, 2(a4)                   #; a4  = 0x1001f37c, 0 ~~> Byte[0x1001f37e]
11361000    11359        M 0x800042c0 sb a1, 1(a4)                   #; a4  = 0x1001f37c, 0 ~~> Byte[0x1001f37d]
11362000    11360        M 0x800042c4 sb a1, 0(a4)                   #; a4  = 0x1001f37c, 0 ~~> Byte[0x1001f37c]
11363000    11361        M 0x800042c8 ret                            #; ra  = 0x800042f8, goto 0x800042f8
11364000    11362        M 0x800042f8 mv ra, t0                      #; t0  = 0x80003fb8, (wrb) ra  <-- 0x80003fb8
11365000    11363        M 0x800042fc addi a5, a5, -16               #; a5  = 12, (wrb) a5  <-- -4
11366000    11364        M 0x80004300 sub a4, a4, a5                 #; a4  = 0x1001f37c, a5  = -4, (wrb) a4  <-- 0x1001f380
11367000    11365        M 0x80004304 add a2, a2, a5                 #; a2  = 64, a5  = -4, (wrb) a2  <-- 60
11368000    11366        M 0x80004308 bgeu t1, a2, -144              #; t1  = 15, a2  = 60, not taken
11369000    11367        M 0x8000430c j -196                         #; goto 0x80004248
11370000    11368        M 0x80004248 bnez a1, 132                   #; a1  = 0, not taken
11371000    11369        M 0x8000424c andi a3, a2, -16               #; a2  = 60, (wrb) a3  <-- 48
11372000    11370        M 0x80004250 andi a2, a2, 15                #; a2  = 60, (wrb) a2  <-- 12
11373000    11371        M 0x80004254 add a3, a3, a4                 #; a3  = 48, a4  = 0x1001f380, (wrb) a3  <-- 0x1001f3b0
11374000    11372        M 0x80004258 sw a1, 0(a4)                   #; a4  = 0x1001f380, 0 ~~> Word[0x1001f380]
11375000    11373        M 0x8000425c sw a1, 4(a4)                   #; a4  = 0x1001f380, 0 ~~> Word[0x1001f384]
11376000    11374        M 0x80004260 sw a1, 8(a4)                   #; a4  = 0x1001f380, 0 ~~> Word[0x1001f388]
11377000    11375        M 0x80004264 sw a1, 12(a4)                  #; a4  = 0x1001f380, 0 ~~> Word[0x1001f38c]
11378000    11376        M 0x80004268 addi a4, a4, 16                #; a4  = 0x1001f380, (wrb) a4  <-- 0x1001f390
11379000    11377        M 0x8000426c bltu a4, a3, -20               #; a4  = 0x1001f390, a3  = 0x1001f3b0, taken, goto 0x80004258
11380000    11378        M 0x80004258 sw a1, 0(a4)                   #; a4  = 0x1001f390, 0 ~~> Word[0x1001f390]
11381000    11379        M 0x8000425c sw a1, 4(a4)                   #; a4  = 0x1001f390, 0 ~~> Word[0x1001f394]
11382000    11380        M 0x80004260 sw a1, 8(a4)                   #; a4  = 0x1001f390, 0 ~~> Word[0x1001f398]
11383000    11381        M 0x80004264 sw a1, 12(a4)                  #; a4  = 0x1001f390, 0 ~~> Word[0x1001f39c]
11384000    11382        M 0x80004268 addi a4, a4, 16                #; a4  = 0x1001f390, (wrb) a4  <-- 0x1001f3a0
11385000    11383        M 0x8000426c bltu a4, a3, -20               #; a4  = 0x1001f3a0, a3  = 0x1001f3b0, taken, goto 0x80004258
11386000    11384        M 0x80004258 sw a1, 0(a4)                   #; a4  = 0x1001f3a0, 0 ~~> Word[0x1001f3a0]
11387000    11385        M 0x8000425c sw a1, 4(a4)                   #; a4  = 0x1001f3a0, 0 ~~> Word[0x1001f3a4]
11388000    11386        M 0x80004260 sw a1, 8(a4)                   #; a4  = 0x1001f3a0, 0 ~~> Word[0x1001f3a8]
11389000    11387        M 0x80004264 sw a1, 12(a4)                  #; a4  = 0x1001f3a0, 0 ~~> Word[0x1001f3ac]
11390000    11388        M 0x80004268 addi a4, a4, 16                #; a4  = 0x1001f3a0, (wrb) a4  <-- 0x1001f3b0
11391000    11389        M 0x8000426c bltu a4, a3, -20               #; a4  = 0x1001f3b0, a3  = 0x1001f3b0, not taken
11392000    11390        M 0x80004270 bnez a2, 8                     #; a2  = 12, taken, goto 0x80004278
11393000    11391        M 0x80004278 sub a3, t1, a2                 #; t1  = 15, a2  = 12, (wrb) a3  <-- 3
11394000    11392        M 0x8000427c slli a3, a3, 2                 #; a3  = 3, (wrb) a3  <-- 12
11395000    11393        M 0x80004280 auipc t0, 0                    #; (wrb) t0  <-- 0x80004280
11396000    11394        M 0x80004284 add a3, a3, t0                 #; a3  = 12, t0  = 0x80004280, (wrb) a3  <-- 0x8000428c
11397000    11395        M 0x80004288 jr 12(a3)                      #; a3  = 0x8000428c, goto 0x80004298
11398000    11396        M 0x80004298 sb a1, 11(a4)                  #; a4  = 0x1001f3b0, 0 ~~> Byte[0x1001f3bb]
11399000    11397        M 0x8000429c sb a1, 10(a4)                  #; a4  = 0x1001f3b0, 0 ~~> Byte[0x1001f3ba]
11400000    11398        M 0x800042a0 sb a1, 9(a4)                   #; a4  = 0x1001f3b0, 0 ~~> Byte[0x1001f3b9]
11401000    11399        M 0x800042a4 sb a1, 8(a4)                   #; a4  = 0x1001f3b0, 0 ~~> Byte[0x1001f3b8]
11402000    11400        M 0x800042a8 sb a1, 7(a4)                   #; a4  = 0x1001f3b0, 0 ~~> Byte[0x1001f3b7]
11403000    11401        M 0x800042ac sb a1, 6(a4)                   #; a4  = 0x1001f3b0, 0 ~~> Byte[0x1001f3b6]
11405000    11403        M 0x800042b0 sb a1, 5(a4)                   #; a4  = 0x1001f3b0, 0 ~~> Byte[0x1001f3b5]
11407000    11405        M 0x800042b4 sb a1, 4(a4)                   #; a4  = 0x1001f3b0, 0 ~~> Byte[0x1001f3b4]
11408000    11406        M 0x800042b8 sb a1, 3(a4)                   #; a4  = 0x1001f3b0, 0 ~~> Byte[0x1001f3b3]
11409000    11407        M 0x800042bc sb a1, 2(a4)                   #; a4  = 0x1001f3b0, 0 ~~> Byte[0x1001f3b2]
11410000    11408        M 0x800042c0 sb a1, 1(a4)                   #; a4  = 0x1001f3b0, 0 ~~> Byte[0x1001f3b1]
11411000    11409        M 0x800042c4 sb a1, 0(a4)                   #; a4  = 0x1001f3b0, 0 ~~> Byte[0x1001f3b0]
11412000    11410        M 0x800042c8 ret                            #; ra  = 0x80003fb8, goto 0x80003fb8
11413000    11411        M 0x80003fb8 lw a0, 8(sp)                   #; sp  = 0x1001df08, a0  <~~ Word[0x1001df10]
11416000    11414        M                                           #; (lsu) a0  <-- 0x1001df54
11417000    11415        M 0x80003fbc add a0, a0, s9                 #; a0  = 0x1001df54, s9  = 6192, (wrb) a0  <-- 0x1001f784
11428000    11426        M 0x80003fc0 li a1, 0                       #; (wrb) a1  <-- 0
11429000    11427        M 0x80003fc4 mv a2, s0                      #; s0  = 64, (wrb) a2  <-- 64
11430000    11428        M 0x80003fc8 auipc ra, 0                    #; (wrb) ra  <-- 0x80003fc8
11431000    11429        M 0x80003fcc jalr 620(ra)                   #; ra  = 0x80003fc8, (wrb) ra  <-- 0x80003fd0, goto 0x80004234
11432000    11430        M 0x80004234 li t1, 15                      #; (wrb) t1  <-- 15
11433000    11431        M 0x80004238 mv a4, a0                      #; a0  = 0x1001f784, (wrb) a4  <-- 0x1001f784
11434000    11432        M 0x8000423c bgeu t1, a2, 60                #; t1  = 15, a2  = 64, not taken
11435000    11433        M 0x80004240 andi a5, a4, 15                #; a4  = 0x1001f784, (wrb) a5  <-- 4
11436000    11434        M 0x80004244 bnez a5, 160                   #; a5  = 4, taken, goto 0x800042e4
11437000    11435        M 0x800042e4 slli a3, a5, 2                 #; a5  = 4, (wrb) a3  <-- 16
11438000    11436        M 0x800042e8 auipc t0, 0                    #; (wrb) t0  <-- 0x800042e8
11439000    11437        M 0x800042ec add a3, a3, t0                 #; a3  = 16, t0  = 0x800042e8, (wrb) a3  <-- 0x800042f8
11440000    11438        M 0x800042f0 mv t0, ra                      #; ra  = 0x80003fd0, (wrb) t0  <-- 0x80003fd0
11441000    11439        M 0x800042f4 jalr -96(a3)                   #; a3  = 0x800042f8, (wrb) ra  <-- 0x800042f8, goto 0x80004298
11442000    11440        M 0x80004298 sb a1, 11(a4)                  #; a4  = 0x1001f784, 0 ~~> Byte[0x1001f78f]
11443000    11441        M 0x8000429c sb a1, 10(a4)                  #; a4  = 0x1001f784, 0 ~~> Byte[0x1001f78e]
11444000    11442        M 0x800042a0 sb a1, 9(a4)                   #; a4  = 0x1001f784, 0 ~~> Byte[0x1001f78d]
11445000    11443        M 0x800042a4 sb a1, 8(a4)                   #; a4  = 0x1001f784, 0 ~~> Byte[0x1001f78c]
11446000    11444        M 0x800042a8 sb a1, 7(a4)                   #; a4  = 0x1001f784, 0 ~~> Byte[0x1001f78b]
11447000    11445        M 0x800042ac sb a1, 6(a4)                   #; a4  = 0x1001f784, 0 ~~> Byte[0x1001f78a]
11448000    11446        M 0x800042b0 sb a1, 5(a4)                   #; a4  = 0x1001f784, 0 ~~> Byte[0x1001f789]
11449000    11447        M 0x800042b4 sb a1, 4(a4)                   #; a4  = 0x1001f784, 0 ~~> Byte[0x1001f788]
11450000    11448        M 0x800042b8 sb a1, 3(a4)                   #; a4  = 0x1001f784, 0 ~~> Byte[0x1001f787]
11451000    11449        M 0x800042bc sb a1, 2(a4)                   #; a4  = 0x1001f784, 0 ~~> Byte[0x1001f786]
11452000    11450        M 0x800042c0 sb a1, 1(a4)                   #; a4  = 0x1001f784, 0 ~~> Byte[0x1001f785]
11453000    11451        M 0x800042c4 sb a1, 0(a4)                   #; a4  = 0x1001f784, 0 ~~> Byte[0x1001f784]
11454000    11452        M 0x800042c8 ret                            #; ra  = 0x800042f8, goto 0x800042f8
11455000    11453        M 0x800042f8 mv ra, t0                      #; t0  = 0x80003fd0, (wrb) ra  <-- 0x80003fd0
11456000    11454        M 0x800042fc addi a5, a5, -16               #; a5  = 4, (wrb) a5  <-- -12
11459000    11457        M 0x80004300 sub a4, a4, a5                 #; a4  = 0x1001f784, a5  = -12, (wrb) a4  <-- 0x1001f790
11460000    11458        M 0x80004304 add a2, a2, a5                 #; a2  = 64, a5  = -12, (wrb) a2  <-- 52
11461000    11459        M 0x80004308 bgeu t1, a2, -144              #; t1  = 15, a2  = 52, not taken
11462000    11460        M 0x8000430c j -196                         #; goto 0x80004248
11463000    11461        M 0x80004248 bnez a1, 132                   #; a1  = 0, not taken
11464000    11462        M 0x8000424c andi a3, a2, -16               #; a2  = 52, (wrb) a3  <-- 48
11465000    11463        M 0x80004250 andi a2, a2, 15                #; a2  = 52, (wrb) a2  <-- 4
11466000    11464        M 0x80004254 add a3, a3, a4                 #; a3  = 48, a4  = 0x1001f790, (wrb) a3  <-- 0x1001f7c0
11467000    11465        M 0x80004258 sw a1, 0(a4)                   #; a4  = 0x1001f790, 0 ~~> Word[0x1001f790]
11468000    11466        M 0x8000425c sw a1, 4(a4)                   #; a4  = 0x1001f790, 0 ~~> Word[0x1001f794]
11470000    11468        M 0x80004260 sw a1, 8(a4)                   #; a4  = 0x1001f790, 0 ~~> Word[0x1001f798]
11472000    11470        M 0x80004264 sw a1, 12(a4)                  #; a4  = 0x1001f790, 0 ~~> Word[0x1001f79c]
11473000    11471        M 0x80004268 addi a4, a4, 16                #; a4  = 0x1001f790, (wrb) a4  <-- 0x1001f7a0
11474000    11472        M 0x8000426c bltu a4, a3, -20               #; a4  = 0x1001f7a0, a3  = 0x1001f7c0, taken, goto 0x80004258
11475000    11473        M 0x80004258 sw a1, 0(a4)                   #; a4  = 0x1001f7a0, 0 ~~> Word[0x1001f7a0]
11476000    11474        M 0x8000425c sw a1, 4(a4)                   #; a4  = 0x1001f7a0, 0 ~~> Word[0x1001f7a4]
11478000    11476        M 0x80004260 sw a1, 8(a4)                   #; a4  = 0x1001f7a0, 0 ~~> Word[0x1001f7a8]
11479000    11477        M 0x80004264 sw a1, 12(a4)                  #; a4  = 0x1001f7a0, 0 ~~> Word[0x1001f7ac]
11480000    11478        M 0x80004268 addi a4, a4, 16                #; a4  = 0x1001f7a0, (wrb) a4  <-- 0x1001f7b0
11481000    11479        M 0x8000426c bltu a4, a3, -20               #; a4  = 0x1001f7b0, a3  = 0x1001f7c0, taken, goto 0x80004258
11482000    11480        M 0x80004258 sw a1, 0(a4)                   #; a4  = 0x1001f7b0, 0 ~~> Word[0x1001f7b0]
11483000    11481        M 0x8000425c sw a1, 4(a4)                   #; a4  = 0x1001f7b0, 0 ~~> Word[0x1001f7b4]
11484000    11482        M 0x80004260 sw a1, 8(a4)                   #; a4  = 0x1001f7b0, 0 ~~> Word[0x1001f7b8]
11485000    11483        M 0x80004264 sw a1, 12(a4)                  #; a4  = 0x1001f7b0, 0 ~~> Word[0x1001f7bc]
11486000    11484        M 0x80004268 addi a4, a4, 16                #; a4  = 0x1001f7b0, (wrb) a4  <-- 0x1001f7c0
11487000    11485        M 0x8000426c bltu a4, a3, -20               #; a4  = 0x1001f7c0, a3  = 0x1001f7c0, not taken
11488000    11486        M 0x80004270 bnez a2, 8                     #; a2  = 4, taken, goto 0x80004278
11489000    11487        M 0x80004278 sub a3, t1, a2                 #; t1  = 15, a2  = 4, (wrb) a3  <-- 11
11490000    11488        M 0x8000427c slli a3, a3, 2                 #; a3  = 11, (wrb) a3  <-- 44
11491000    11489        M 0x80004280 auipc t0, 0                    #; (wrb) t0  <-- 0x80004280
11492000    11490        M 0x80004284 add a3, a3, t0                 #; a3  = 44, t0  = 0x80004280, (wrb) a3  <-- 0x800042ac
11493000    11491        M 0x80004288 jr 12(a3)                      #; a3  = 0x800042ac, goto 0x800042b8
11494000    11492        M 0x800042b8 sb a1, 3(a4)                   #; a4  = 0x1001f7c0, 0 ~~> Byte[0x1001f7c3]
11495000    11493        M 0x800042bc sb a1, 2(a4)                   #; a4  = 0x1001f7c0, 0 ~~> Byte[0x1001f7c2]
11496000    11494        M 0x800042c0 sb a1, 1(a4)                   #; a4  = 0x1001f7c0, 0 ~~> Byte[0x1001f7c1]
11497000    11495        M 0x800042c4 sb a1, 0(a4)                   #; a4  = 0x1001f7c0, 0 ~~> Byte[0x1001f7c0]
11498000    11496        M 0x800042c8 ret                            #; ra  = 0x80003fd0, goto 0x80003fd0
11499000    11497        M 0x80003fd0 lw a0, 8(sp)                   #; sp  = 0x1001df08, a0  <~~ Word[0x1001df10]
11502000    11500        M                                           #; (lsu) a0  <-- 0x1001df54
11503000    11501        M 0x80003fd4 add a0, a0, s10                #; a0  = 0x1001df54, s10 = 7224, (wrb) a0  <-- 0x1001fb8c
11504000    11502        M 0x80003fd8 li a1, 0                       #; (wrb) a1  <-- 0
11505000    11503        M 0x80003fdc mv a2, s0                      #; s0  = 64, (wrb) a2  <-- 64
11506000    11504        M 0x80003fe0 auipc ra, 0                    #; (wrb) ra  <-- 0x80003fe0
11507000    11505        M 0x80003fe4 jalr 596(ra)                   #; ra  = 0x80003fe0, (wrb) ra  <-- 0x80003fe8, goto 0x80004234
11508000    11506        M 0x80004234 li t1, 15                      #; (wrb) t1  <-- 15
11509000    11507        M 0x80004238 mv a4, a0                      #; a0  = 0x1001fb8c, (wrb) a4  <-- 0x1001fb8c
11510000    11508        M 0x8000423c bgeu t1, a2, 60                #; t1  = 15, a2  = 64, not taken
11511000    11509        M 0x80004240 andi a5, a4, 15                #; a4  = 0x1001fb8c, (wrb) a5  <-- 12
11512000    11510        M 0x80004244 bnez a5, 160                   #; a5  = 12, taken, goto 0x800042e4
11513000    11511        M 0x800042e4 slli a3, a5, 2                 #; a5  = 12, (wrb) a3  <-- 48
11514000    11512        M 0x800042e8 auipc t0, 0                    #; (wrb) t0  <-- 0x800042e8
11515000    11513        M 0x800042ec add a3, a3, t0                 #; a3  = 48, t0  = 0x800042e8, (wrb) a3  <-- 0x80004318
11516000    11514        M 0x800042f0 mv t0, ra                      #; ra  = 0x80003fe8, (wrb) t0  <-- 0x80003fe8
11517000    11515        M 0x800042f4 jalr -96(a3)                   #; a3  = 0x80004318, (wrb) ra  <-- 0x800042f8, goto 0x800042b8
11518000    11516        M 0x800042b8 sb a1, 3(a4)                   #; a4  = 0x1001fb8c, 0 ~~> Byte[0x1001fb8f]
11519000    11517        M 0x800042bc sb a1, 2(a4)                   #; a4  = 0x1001fb8c, 0 ~~> Byte[0x1001fb8e]
11520000    11518        M 0x800042c0 sb a1, 1(a4)                   #; a4  = 0x1001fb8c, 0 ~~> Byte[0x1001fb8d]
11521000    11519        M 0x800042c4 sb a1, 0(a4)                   #; a4  = 0x1001fb8c, 0 ~~> Byte[0x1001fb8c]
11522000    11520        M 0x800042c8 ret                            #; ra  = 0x800042f8, goto 0x800042f8
11523000    11521        M 0x800042f8 mv ra, t0                      #; t0  = 0x80003fe8, (wrb) ra  <-- 0x80003fe8
11524000    11522        M 0x800042fc addi a5, a5, -16               #; a5  = 12, (wrb) a5  <-- -4
11525000    11523        M 0x80004300 sub a4, a4, a5                 #; a4  = 0x1001fb8c, a5  = -4, (wrb) a4  <-- 0x1001fb90
11526000    11524        M 0x80004304 add a2, a2, a5                 #; a2  = 64, a5  = -4, (wrb) a2  <-- 60
11527000    11525        M 0x80004308 bgeu t1, a2, -144              #; t1  = 15, a2  = 60, not taken
11528000    11526        M 0x8000430c j -196                         #; goto 0x80004248
11529000    11527        M 0x80004248 bnez a1, 132                   #; a1  = 0, not taken
11530000    11528        M 0x8000424c andi a3, a2, -16               #; a2  = 60, (wrb) a3  <-- 48
11531000    11529        M 0x80004250 andi a2, a2, 15                #; a2  = 60, (wrb) a2  <-- 12
11532000    11530        M 0x80004254 add a3, a3, a4                 #; a3  = 48, a4  = 0x1001fb90, (wrb) a3  <-- 0x1001fbc0
11533000    11531        M 0x80004258 sw a1, 0(a4)                   #; a4  = 0x1001fb90, 0 ~~> Word[0x1001fb90]
11534000    11532        M 0x8000425c sw a1, 4(a4)                   #; a4  = 0x1001fb90, 0 ~~> Word[0x1001fb94]
11535000    11533        M 0x80004260 sw a1, 8(a4)                   #; a4  = 0x1001fb90, 0 ~~> Word[0x1001fb98]
11536000    11534        M 0x80004264 sw a1, 12(a4)                  #; a4  = 0x1001fb90, 0 ~~> Word[0x1001fb9c]
11537000    11535        M 0x80004268 addi a4, a4, 16                #; a4  = 0x1001fb90, (wrb) a4  <-- 0x1001fba0
11538000    11536        M 0x8000426c bltu a4, a3, -20               #; a4  = 0x1001fba0, a3  = 0x1001fbc0, taken, goto 0x80004258
11539000    11537        M 0x80004258 sw a1, 0(a4)                   #; a4  = 0x1001fba0, 0 ~~> Word[0x1001fba0]
11540000    11538        M 0x8000425c sw a1, 4(a4)                   #; a4  = 0x1001fba0, 0 ~~> Word[0x1001fba4]
11541000    11539        M 0x80004260 sw a1, 8(a4)                   #; a4  = 0x1001fba0, 0 ~~> Word[0x1001fba8]
11542000    11540        M 0x80004264 sw a1, 12(a4)                  #; a4  = 0x1001fba0, 0 ~~> Word[0x1001fbac]
11543000    11541        M 0x80004268 addi a4, a4, 16                #; a4  = 0x1001fba0, (wrb) a4  <-- 0x1001fbb0
11544000    11542        M 0x8000426c bltu a4, a3, -20               #; a4  = 0x1001fbb0, a3  = 0x1001fbc0, taken, goto 0x80004258
11545000    11543        M 0x80004258 sw a1, 0(a4)                   #; a4  = 0x1001fbb0, 0 ~~> Word[0x1001fbb0]
11546000    11544        M 0x8000425c sw a1, 4(a4)                   #; a4  = 0x1001fbb0, 0 ~~> Word[0x1001fbb4]
11547000    11545        M 0x80004260 sw a1, 8(a4)                   #; a4  = 0x1001fbb0, 0 ~~> Word[0x1001fbb8]
11548000    11546        M 0x80004264 sw a1, 12(a4)                  #; a4  = 0x1001fbb0, 0 ~~> Word[0x1001fbbc]
11549000    11547        M 0x80004268 addi a4, a4, 16                #; a4  = 0x1001fbb0, (wrb) a4  <-- 0x1001fbc0
11550000    11548        M 0x8000426c bltu a4, a3, -20               #; a4  = 0x1001fbc0, a3  = 0x1001fbc0, not taken
11551000    11549        M 0x80004270 bnez a2, 8                     #; a2  = 12, taken, goto 0x80004278
11552000    11550        M 0x80004278 sub a3, t1, a2                 #; t1  = 15, a2  = 12, (wrb) a3  <-- 3
11553000    11551        M 0x8000427c slli a3, a3, 2                 #; a3  = 3, (wrb) a3  <-- 12
11554000    11552        M 0x80004280 auipc t0, 0                    #; (wrb) t0  <-- 0x80004280
11555000    11553        M 0x80004284 add a3, a3, t0                 #; a3  = 12, t0  = 0x80004280, (wrb) a3  <-- 0x8000428c
11556000    11554        M 0x80004288 jr 12(a3)                      #; a3  = 0x8000428c, goto 0x80004298
11557000    11555        M 0x80004298 sb a1, 11(a4)                  #; a4  = 0x1001fbc0, 0 ~~> Byte[0x1001fbcb]
11558000    11556        M 0x8000429c sb a1, 10(a4)                  #; a4  = 0x1001fbc0, 0 ~~> Byte[0x1001fbca]
11559000    11557        M 0x800042a0 sb a1, 9(a4)                   #; a4  = 0x1001fbc0, 0 ~~> Byte[0x1001fbc9]
11560000    11558        M 0x800042a4 sb a1, 8(a4)                   #; a4  = 0x1001fbc0, 0 ~~> Byte[0x1001fbc8]
11561000    11559        M 0x800042a8 sb a1, 7(a4)                   #; a4  = 0x1001fbc0, 0 ~~> Byte[0x1001fbc7]
11562000    11560        M 0x800042ac sb a1, 6(a4)                   #; a4  = 0x1001fbc0, 0 ~~> Byte[0x1001fbc6]
11563000    11561        M 0x800042b0 sb a1, 5(a4)                   #; a4  = 0x1001fbc0, 0 ~~> Byte[0x1001fbc5]
11564000    11562        M 0x800042b4 sb a1, 4(a4)                   #; a4  = 0x1001fbc0, 0 ~~> Byte[0x1001fbc4]
11566000    11564        M 0x800042b8 sb a1, 3(a4)                   #; a4  = 0x1001fbc0, 0 ~~> Byte[0x1001fbc3]
11568000    11566        M 0x800042bc sb a1, 2(a4)                   #; a4  = 0x1001fbc0, 0 ~~> Byte[0x1001fbc2]
11569000    11567        M 0x800042c0 sb a1, 1(a4)                   #; a4  = 0x1001fbc0, 0 ~~> Byte[0x1001fbc1]
11570000    11568        M 0x800042c4 sb a1, 0(a4)                   #; a4  = 0x1001fbc0, 0 ~~> Byte[0x1001fbc0]
11571000    11569        M 0x800042c8 ret                            #; ra  = 0x80003fe8, goto 0x80003fe8
11572000    11570        M 0x80003fe8 lw a0, 8(sp)                   #; sp  = 0x1001df08, a0  <~~ Word[0x1001df10]
11575000    11573        M                                           #; (lsu) a0  <-- 0x1001df54
11576000    11574        M 0x80003fec add a0, a0, s11                #; a0  = 0x1001df54, s11 = 8256, (wrb) a0  <-- 0x1001ff94
11577000    11575        M 0x80003ff0 li a1, 0                       #; (wrb) a1  <-- 0
11578000    11576        M 0x80003ff4 mv a2, s0                      #; s0  = 64, (wrb) a2  <-- 64
11579000    11577        M 0x80003ff8 auipc ra, 0                    #; (wrb) ra  <-- 0x80003ff8
11580000    11578        M 0x80003ffc jalr 572(ra)                   #; ra  = 0x80003ff8, (wrb) ra  <-- 0x80004000, goto 0x80004234
11581000    11579        M 0x80004234 li t1, 15                      #; (wrb) t1  <-- 15
11582000    11580        M 0x80004238 mv a4, a0                      #; a0  = 0x1001ff94, (wrb) a4  <-- 0x1001ff94
11583000    11581        M 0x8000423c bgeu t1, a2, 60                #; t1  = 15, a2  = 64, not taken
11584000    11582        M 0x80004240 andi a5, a4, 15                #; a4  = 0x1001ff94, (wrb) a5  <-- 4
11585000    11583        M 0x80004244 bnez a5, 160                   #; a5  = 4, taken, goto 0x800042e4
11586000    11584        M 0x800042e4 slli a3, a5, 2                 #; a5  = 4, (wrb) a3  <-- 16
11587000    11585        M 0x800042e8 auipc t0, 0                    #; (wrb) t0  <-- 0x800042e8
11588000    11586        M 0x800042ec add a3, a3, t0                 #; a3  = 16, t0  = 0x800042e8, (wrb) a3  <-- 0x800042f8
11589000    11587        M 0x800042f0 mv t0, ra                      #; ra  = 0x80004000, (wrb) t0  <-- 0x80004000
11590000    11588        M 0x800042f4 jalr -96(a3)                   #; a3  = 0x800042f8, (wrb) ra  <-- 0x800042f8, goto 0x80004298
11591000    11589        M 0x80004298 sb a1, 11(a4)                  #; a4  = 0x1001ff94, 0 ~~> Byte[0x1001ff9f]
11592000    11590        M 0x8000429c sb a1, 10(a4)                  #; a4  = 0x1001ff94, 0 ~~> Byte[0x1001ff9e]
11593000    11591        M 0x800042a0 sb a1, 9(a4)                   #; a4  = 0x1001ff94, 0 ~~> Byte[0x1001ff9d]
11594000    11592        M 0x800042a4 sb a1, 8(a4)                   #; a4  = 0x1001ff94, 0 ~~> Byte[0x1001ff9c]
11595000    11593        M 0x800042a8 sb a1, 7(a4)                   #; a4  = 0x1001ff94, 0 ~~> Byte[0x1001ff9b]
11596000    11594        M 0x800042ac sb a1, 6(a4)                   #; a4  = 0x1001ff94, 0 ~~> Byte[0x1001ff9a]
11597000    11595        M 0x800042b0 sb a1, 5(a4)                   #; a4  = 0x1001ff94, 0 ~~> Byte[0x1001ff99]
11598000    11596        M 0x800042b4 sb a1, 4(a4)                   #; a4  = 0x1001ff94, 0 ~~> Byte[0x1001ff98]
11599000    11597        M 0x800042b8 sb a1, 3(a4)                   #; a4  = 0x1001ff94, 0 ~~> Byte[0x1001ff97]
11600000    11598        M 0x800042bc sb a1, 2(a4)                   #; a4  = 0x1001ff94, 0 ~~> Byte[0x1001ff96]
11601000    11599        M 0x800042c0 sb a1, 1(a4)                   #; a4  = 0x1001ff94, 0 ~~> Byte[0x1001ff95]
11602000    11600        M 0x800042c4 sb a1, 0(a4)                   #; a4  = 0x1001ff94, 0 ~~> Byte[0x1001ff94]
11603000    11601        M 0x800042c8 ret                            #; ra  = 0x800042f8, goto 0x800042f8
11604000    11602        M 0x800042f8 mv ra, t0                      #; t0  = 0x80004000, (wrb) ra  <-- 0x80004000
11605000    11603        M 0x800042fc addi a5, a5, -16               #; a5  = 4, (wrb) a5  <-- -12
11606000    11604        M 0x80004300 sub a4, a4, a5                 #; a4  = 0x1001ff94, a5  = -12, (wrb) a4  <-- 0x1001ffa0
11607000    11605        M 0x80004304 add a2, a2, a5                 #; a2  = 64, a5  = -12, (wrb) a2  <-- 52
11608000    11606        M 0x80004308 bgeu t1, a2, -144              #; t1  = 15, a2  = 52, not taken
11609000    11607        M 0x8000430c j -196                         #; goto 0x80004248
11610000    11608        M 0x80004248 bnez a1, 132                   #; a1  = 0, not taken
11611000    11609        M 0x8000424c andi a3, a2, -16               #; a2  = 52, (wrb) a3  <-- 48
11612000    11610        M 0x80004250 andi a2, a2, 15                #; a2  = 52, (wrb) a2  <-- 4
11613000    11611        M 0x80004254 add a3, a3, a4                 #; a3  = 48, a4  = 0x1001ffa0, (wrb) a3  <-- 0x1001ffd0
11614000    11612        M 0x80004258 sw a1, 0(a4)                   #; a4  = 0x1001ffa0, 0 ~~> Word[0x1001ffa0]
11615000    11613        M 0x8000425c sw a1, 4(a4)                   #; a4  = 0x1001ffa0, 0 ~~> Word[0x1001ffa4]
11616000    11614        M 0x80004260 sw a1, 8(a4)                   #; a4  = 0x1001ffa0, 0 ~~> Word[0x1001ffa8]
11617000    11615        M 0x80004264 sw a1, 12(a4)                  #; a4  = 0x1001ffa0, 0 ~~> Word[0x1001ffac]
11618000    11616        M 0x80004268 addi a4, a4, 16                #; a4  = 0x1001ffa0, (wrb) a4  <-- 0x1001ffb0
11619000    11617        M 0x8000426c bltu a4, a3, -20               #; a4  = 0x1001ffb0, a3  = 0x1001ffd0, taken, goto 0x80004258
11620000    11618        M 0x80004258 sw a1, 0(a4)                   #; a4  = 0x1001ffb0, 0 ~~> Word[0x1001ffb0]
11621000    11619        M 0x8000425c sw a1, 4(a4)                   #; a4  = 0x1001ffb0, 0 ~~> Word[0x1001ffb4]
11622000    11620        M 0x80004260 sw a1, 8(a4)                   #; a4  = 0x1001ffb0, 0 ~~> Word[0x1001ffb8]
11623000    11621        M 0x80004264 sw a1, 12(a4)                  #; a4  = 0x1001ffb0, 0 ~~> Word[0x1001ffbc]
11624000    11622        M 0x80004268 addi a4, a4, 16                #; a4  = 0x1001ffb0, (wrb) a4  <-- 0x1001ffc0
11625000    11623        M 0x8000426c bltu a4, a3, -20               #; a4  = 0x1001ffc0, a3  = 0x1001ffd0, taken, goto 0x80004258
11626000    11624        M 0x80004258 sw a1, 0(a4)                   #; a4  = 0x1001ffc0, 0 ~~> Word[0x1001ffc0]
11627000    11625        M 0x8000425c sw a1, 4(a4)                   #; a4  = 0x1001ffc0, 0 ~~> Word[0x1001ffc4]
11628000    11626        M 0x80004260 sw a1, 8(a4)                   #; a4  = 0x1001ffc0, 0 ~~> Word[0x1001ffc8]
11629000    11627        M 0x80004264 sw a1, 12(a4)                  #; a4  = 0x1001ffc0, 0 ~~> Word[0x1001ffcc]
11630000    11628        M 0x80004268 addi a4, a4, 16                #; a4  = 0x1001ffc0, (wrb) a4  <-- 0x1001ffd0
11631000    11629        M 0x8000426c bltu a4, a3, -20               #; a4  = 0x1001ffd0, a3  = 0x1001ffd0, not taken
11632000    11630        M 0x80004270 bnez a2, 8                     #; a2  = 4, taken, goto 0x80004278
11633000    11631        M 0x80004278 sub a3, t1, a2                 #; t1  = 15, a2  = 4, (wrb) a3  <-- 11
11634000    11632        M 0x8000427c slli a3, a3, 2                 #; a3  = 11, (wrb) a3  <-- 44
11635000    11633        M 0x80004280 auipc t0, 0                    #; (wrb) t0  <-- 0x80004280
11636000    11634        M 0x80004284 add a3, a3, t0                 #; a3  = 44, t0  = 0x80004280, (wrb) a3  <-- 0x800042ac
11637000    11635        M 0x80004288 jr 12(a3)                      #; a3  = 0x800042ac, goto 0x800042b8
11638000    11636        M 0x800042b8 sb a1, 3(a4)                   #; a4  = 0x1001ffd0, 0 ~~> Byte[0x1001ffd3]
11639000    11637        M 0x800042bc sb a1, 2(a4)                   #; a4  = 0x1001ffd0, 0 ~~> Byte[0x1001ffd2]
11640000    11638        M 0x800042c0 sb a1, 1(a4)                   #; a4  = 0x1001ffd0, 0 ~~> Byte[0x1001ffd1]
11641000    11639        M 0x800042c4 sb a1, 0(a4)                   #; a4  = 0x1001ffd0, 0 ~~> Byte[0x1001ffd0]
11642000    11640        M 0x800042c8 ret                            #; ra  = 0x80004000, goto 0x80004000
11653000    11651        M 0x80004000 csrr zero, 1986                #; csr@7c2 = 0
15959000    15957        M 0x80004004 auipc s0, 2                    #; (wrb) s0  <-- 0x80006004
15960000    15958        M 0x80004008 addi s0, s0, -300              #; s0  = 0x80006004, (wrb) s0  <-- 0x80005ed8
15961000    15959        M 0x8000400c auipc s7, 2                    #; (wrb) s7  <-- 0x8000600c
15962000    15960        M 0x80004010 addi s7, s7, -308              #; s7  = 0x8000600c, (wrb) s7  <-- 0x80005ed8
15963000    15961        M 0x80004014 auipc s6, 2                    #; (wrb) s6  <-- 0x80006014
15964000    15962        M 0x80004018 addi s6, s6, -316              #; s6  = 0x80006014, (wrb) s6  <-- 0x80005ed8
15965000    15963        M 0x8000401c auipc s8, 2                    #; (wrb) s8  <-- 0x8000601c
15966000    15964        M 0x80004020 addi s8, s8, -292              #; s8  = 0x8000601c, (wrb) s8  <-- 0x80005ef8
15967000    15965        M 0x80004024 beqz s4, 84                    #; s4  = 0, taken, goto 0x80004078
15978000    15976        M 0x80004078 sub a0, s7, s0                 #; s7  = 0x80005ed8, s0  = 0x80005ed8, (wrb) a0  <-- 0
15979000    15977        M 0x8000407c add a0, a0, s8                 #; a0  = 0, s8  = 0x80005ef8, (wrb) a0  <-- 0x80005ef8
15991000    15989        M 0x80004080 sub a0, s6, a0                 #; s6  = 0x80005ed8, a0  = 0x80005ef8, (wrb) a0  <-- -32
15992000    15990        M 0x80004084 lui a2, 65568                  #; (wrb) a2  <-- 0x10020000
15993000    15991        M 0x80004088 add a1, a0, a2                 #; a0  = -32, a2  = 0x10020000, (wrb) a1  <-- 0x1001ffe0
15994000    15992        M 0x8000408c lui a3, 0                      #; (wrb) a3  <-- 0
15995000    15993        M 0x80004090 add s0, a3, tp                 #; a3  = 0, tp  = 0x1001df48, (wrb) s0  <-- 0x1001df48
15996000    15994        M 0x80004094 sw a1, 64(s0)                  #; s0  = 0x1001df48, 0x1001ffe0 ~~> Word[0x1001df88]
15997000    15995        M 0x80004098 csrr zero, 1986                #; csr@7c2 = 0
16027000    16025        M 0x8000409c li a3, 8                       #; (wrb) a3  <-- 8
16028000    16026        M 0x800040a0 auipc a1, 5                    #; (wrb) a1  <-- 0x800090a0
16029000    16027        M 0x800040a4 addi a1, a1, -1848             #; a1  = 0x800090a0, (wrb) a1  <-- 0x80008968
16030000    16028        M 0x800040a8 bltu s5, a3, 84                #; s5  = 8, a3  = 8, not taken
16031000    16029        M 0x800040ac lw a3, 64(s0)                  #; s0  = 0x1001df48, a3  <~~ Word[0x1001df88]
16032000    16030        M 0x800040b0 lui a4, 65536                  #; (wrb) a4  <-- 0x10000000
16033000    16031        M 0x800040b4 add a4, s3, a4                 #; s3  = 0, a4  = 0x10000000, (wrb) a4  <-- 0x10000000
16034000    16032        M                                           #; (lsu) a3  <-- 0x1001ffe0
16035000    16033        M 0x800040b8 sw a4, 8(a3)                   #; a3  = 0x1001ffe0, 0x10000000 ~~> Word[0x1001ffe8]
16036000    16034        M 0x800040bc sw zero, 12(a3)                #; a3  = 0x1001ffe0, 0 ~~> Word[0x1001ffec]
16041000    16039        M 0x800040c0 add a2, s3, a2                 #; s3  = 0, a2  = 0x10020000, (wrb) a2  <-- 0x10020000
16042000    16040        M 0x800040c4 sw a2, 16(a3)                  #; a3  = 0x1001ffe0, 0x10020000 ~~> Word[0x1001fff0]
16043000    16041        M 0x800040c8 sw zero, 20(a3)                #; a3  = 0x1001ffe0, 0 ~~> Word[0x1001fff4]
16044000    16042        M 0x800040cc sw a4, 24(a3)                  #; a3  = 0x1001ffe0, 0x10000000 ~~> Word[0x1001fff8]
16045000    16043        M 0x800040d0 sw zero, 28(a3)                #; a3  = 0x1001ffe0, 0 ~~> Word[0x1001fffc]
16046000    16044        M 0x800040d4 addi a2, a1, 7                 #; a1  = 0x80008968, (wrb) a2  <-- 0x8000896f
16047000    16045        M 0x800040d8 andi a2, a2, -8                #; a2  = 0x8000896f, (wrb) a2  <-- 0x80008968
16048000    16046        M 0x800040dc auipc a3, 2                    #; (wrb) a3  <-- 0x800060dc
16049000    16047        M 0x800040e0 addi a3, a3, 492               #; a3  = 0x800060dc, (wrb) a3  <-- 0x800062c8
16050000    16048        M 0x800040e4 sw a2, 0(a3)                   #; a3  = 0x800062c8, 0x80008968 ~~> Word[0x800062c8]
16051000    16049        M 0x800040e8 sw zero, 4(a3)                 #; a3  = 0x800062c8, 0 ~~> Word[0x800062cc]
16052000    16050        M 0x800040ec sw a2, 8(a3)                   #; a3  = 0x800062c8, 0x80008968 ~~> Word[0x800062d0]
16053000    16051        M 0x800040f0 sw zero, 12(a3)                #; a3  = 0x800062c8, 0 ~~> Word[0x800062d4]
16062000    16060        M 0x800040f4 sw a2, 16(a3)                  #; a3  = 0x800062c8, 0x80008968 ~~> Word[0x800062d8]
16063000    16061        M 0x800040f8 sw zero, 20(a3)                #; a3  = 0x800062c8, 0 ~~> Word[0x800062dc]
16064000    16062        M 0x800040fc csrr zero, 1986                #; csr@7c2 = 0
16076000    16074        M 0x80004100 lui a2, 65536                  #; (wrb) a2  <-- 0x10000000
16077000    16075        M 0x80004104 add a2, s3, a2                 #; s3  = 0, a2  = 0x10000000, (wrb) a2  <-- 0x10000000
16078000    16076        M 0x80004108 lui a3, 0                      #; (wrb) a3  <-- 0
16079000    16077        M 0x8000410c add a3, a3, tp                 #; a3  = 0, tp  = 0x1001df48, (wrb) a3  <-- 0x1001df48
16080000    16078        M 0x80004110 sw zero, 20(a3)                #; a3  = 0x1001df48, 0 ~~> Word[0x1001df5c]
16081000    16079        M 0x80004114 sw a2, 16(a3)                  #; a3  = 0x1001df48, 0x10000000 ~~> Word[0x1001df58]
16082000    16080        M 0x80004118 addi a3, a3, 16                #; a3  = 0x1001df48, (wrb) a3  <-- 0x1001df58
16083000    16081        M 0x8000411c sw zero, 12(a3)                #; a3  = 0x1001df58, 0 ~~> Word[0x1001df64]
16084000    16082        M 0x80004120 lui a4, 65566                  #; (wrb) a4  <-- 0x1001e000
16085000    16083        M 0x80004124 addi a4, a4, -1152             #; a4  = 0x1001e000, (wrb) a4  <-- 0x1001db80
16086000    16084        M 0x80004128 add a0, a0, a4                 #; a0  = -32, a4  = 0x1001db80, (wrb) a0  <-- 0x1001db60
16087000    16085        M 0x8000412c sw a0, 8(a3)                   #; a3  = 0x1001df58, 0x1001db60 ~~> Word[0x1001df60]
16088000    16086        M 0x80004130 sw zero, 20(a3)                #; a3  = 0x1001df58, 0 ~~> Word[0x1001df6c]
16089000    16087        M 0x80004134 sw a2, 16(a3)                  #; a3  = 0x1001df58, 0x10000000 ~~> Word[0x1001df68]
16090000    16088        M 0x80004138 lui a0, 0                      #; (wrb) a0  <-- 0
16091000    16089        M 0x8000413c add a0, a0, tp                 #; a0  = 0, tp  = 0x1001df48, (wrb) a0  <-- 0x1001df48
16102000    16100        M 0x80004140 sw zero, 44(a0)                #; a0  = 0x1001df48, 0 ~~> Word[0x1001df74]
16103000    16101        M 0x80004144 addi a1, a1, 7                 #; a1  = 0x80008968, (wrb) a1  <-- 0x8000896f
16104000    16102        M 0x80004148 andi a1, a1, -8                #; a1  = 0x8000896f, (wrb) a1  <-- 0x80008968
16105000    16103        M 0x8000414c sw a1, 40(a0)                  #; a0  = 0x1001df48, 0x80008968 ~~> Word[0x1001df70]
16106000    16104        M 0x80004150 addi a0, a0, 40                #; a0  = 0x1001df48, (wrb) a0  <-- 0x1001df70
16107000    16105        M 0x80004154 li a2, 1                       #; (wrb) a2  <-- 1
16108000    16106        M 0x80004158 sw a2, 12(a0)                  #; a0  = 0x1001df70, 1 ~~> Word[0x1001df7c]
16109000    16107        M 0x8000415c sw zero, 8(a0)                 #; a0  = 0x1001df70, 0 ~~> Word[0x1001df78]
16110000    16108        M 0x80004160 sw zero, 20(a0)                #; a0  = 0x1001df70, 0 ~~> Word[0x1001df84]
16111000    16109        M 0x80004164 sw a1, 16(a0)                  #; a0  = 0x1001df70, 0x80008968 ~~> Word[0x1001df80]
16112000    16110        M 0x80004168 lui a0, 0                      #; (wrb) a0  <-- 0
16113000    16111        M 0x8000416c add a0, a0, tp                 #; a0  = 0, tp  = 0x1001df48, (wrb) a0  <-- 0x1001df48
16114000    16112        M 0x80004170 lui a1, 0                      #; (wrb) a1  <-- 0
16115000    16113        M 0x80004174 add a1, a1, tp                 #; a1  = 0, tp  = 0x1001df48, (wrb) a1  <-- 0x1001df48
16116000    16114        M 0x80004178 mv a1, a1                      #; a1  = 0x1001df48, (wrb) a1  <-- 0x1001df48
16117000    16115        M 0x8000417c sw a1, 76(a0)                  #; a0  = 0x1001df48, 0x1001df48 ~~> Word[0x1001df94]
16128000    16126        M 0x80004180 csrr zero, 1986                #; csr@7c2 = 0
16130000    16128        M 0x80004184 auipc ra, 1048572              #; (wrb) ra  <-- 0x80000184
16131000    16129        M 0x80004188 jalr 1300(ra)                  #; ra  = 0x80000184, (wrb) ra  <-- 0x8000418c, goto 0x80000698
16142000    16140        M 0x80000698 addi sp, sp, -80               #; sp  = 0x1001df08, (wrb) sp  <-- 0x1001deb8
16143000    16141        M 0x8000069c sw ra, 76(sp)                  #; sp  = 0x1001deb8, 0x8000418c ~~> Word[0x1001df04]
16144000    16142        M 0x800006a0 sw s0, 72(sp)                  #; sp  = 0x1001deb8, 0x1001df48 ~~> Word[0x1001df00]
16145000    16143        M 0x800006a4 sw s1, 68(sp)                  #; sp  = 0x1001deb8, 2064 ~~> Word[0x1001defc]
16146000    16144        M 0x800006a8 sw s2, 64(sp)                  #; sp  = 0x1001deb8, 8 ~~> Word[0x1001def8]
16147000    16145        M 0x800006ac sw s3, 60(sp)                  #; sp  = 0x1001deb8, 0 ~~> Word[0x1001def4]
16148000    16146        M 0x800006b0 sw s4, 56(sp)                  #; sp  = 0x1001deb8, 0 ~~> Word[0x1001def0]
16149000    16147        M 0x800006b4 sw s5, 52(sp)                  #; sp  = 0x1001deb8, 8 ~~> Word[0x1001deec]
16150000    16148        M 0x800006b8 sw s6, 48(sp)                  #; sp  = 0x1001deb8, 0x80005ed8 ~~> Word[0x1001dee8]
16151000    16149        M 0x800006bc sw s7, 44(sp)                  #; sp  = 0x1001deb8, 0x80005ed8 ~~> Word[0x1001dee4]
16162000    16160        M 0x800006c0 sw s8, 40(sp)                  #; sp  = 0x1001deb8, 0x80005ef8 ~~> Word[0x1001dee0]
16163000    16161        M 0x800006c4 sw s9, 36(sp)                  #; sp  = 0x1001deb8, 6192 ~~> Word[0x1001dedc]
16164000    16162        M 0x800006c8 sw s10, 32(sp)                 #; sp  = 0x1001deb8, 7224 ~~> Word[0x1001ded8]
16165000    16163        M 0x800006cc sw s11, 28(sp)                 #; sp  = 0x1001deb8, 8256 ~~> Word[0x1001ded4]
16166000    16164        M 0x800006d0 csrr a0, mhartid               #; mhartid = 8, (wrb) a0  <-- 8
16167000    16165        M 0x800006d4 lui a1, 233017                 #; (wrb) a1  <-- 0x38e39000
16168000    16166        M 0x800006d8 addi a1, a1, -455              #; a1  = 0x38e39000, (wrb) a1  <-- 0x38e38e39
16169000    16167        M 0x800006dc mulhu a1, a0, a1               #; a0  = 8, a1  = 0x38e38e39
16171000    16169        M                                           #; (acc) a1  <-- 1
16172000    16170        M 0x800006e0 srli s2, a1, 1                 #; a1  = 1, (wrb) s2  <-- 0
16173000    16171        M 0x800006e4 slli a1, s2, 3                 #; s2  = 0, (wrb) a1  <-- 0
16174000    16172        M 0x800006e8 add a1, a1, s2                 #; a1  = 0, s2  = 0, (wrb) a1  <-- 0
16175000    16173        M 0x800006ec sub a0, a0, a1                 #; a0  = 8, a1  = 0, (wrb) a0  <-- 8
16176000    16174        M 0x800006f0 csrr zero, 1986                #; csr@7c2 = 0
16178000    16176        M 0x800006f4 auipc s0, 6                    #; (wrb) s0  <-- 0x800066f4
16179000    16177        M 0x800006f8 addi s0, s0, -1836             #; s0  = 0x800066f4, (wrb) s0  <-- 0x80005fc8
16180000    16178        M 0x800006fc auipc s1, 6                    #; (wrb) s1  <-- 0x800066fc
16191000    16189        M 0x80000700 addi s1, s1, -1588             #; s1  = 0x800066fc, (wrb) s1  <-- 0x800060c8
16192000    16190        M 0x80000704 auipc s4, 6                    #; (wrb) s4  <-- 0x80006704
16193000    16191        M 0x80000708 addi s4, s4, -1340             #; s4  = 0x80006704, (wrb) s4  <-- 0x800061c8
16194000    16192        M 0x8000070c sw s1, 16(sp)                  #; sp  = 0x1001deb8, 0x800060c8 ~~> Word[0x1001dec8]
16195000    16193        M 0x80000710 sw s2, 12(sp)                  #; sp  = 0x1001deb8, 0 ~~> Word[0x1001dec4]
16196000    16194        M 0x80000714 sw a0, 20(sp)                  #; sp  = 0x1001deb8, 8 ~~> Word[0x1001decc]
16197000    16195        M 0x80000718 beqz a0, 432                   #; a0  = 8, not taken
16198000    16196        M 0x8000071c csrr zero, 1986                #; csr@7c2 = 0
22528000    22526        M 0x80000720 csrr zero, 1986                #; csr@7c2 = 0
22530000    22528        M 0x80000724 csrr zero, 1986                #; csr@7c2 = 0
22632000    22630        M 0x80000728 andi a2, a0, 7                 #; a0  = 8, (wrb) a2  <-- 0
22633000    22631        M 0x8000072c srli a1, a0, 2                 #; a0  = 8, (wrb) a1  <-- 2
22634000    22632        M 0x80000730 andi a5, a1, 2                 #; a1  = 2, (wrb) a5  <-- 2
22635000    22633        M 0x80000734 sw a2, 24(sp)                  #; sp  = 0x1001deb8, 0 ~~> Word[0x1001ded0]
22636000    22634        M 0x80000738 slli a1, a2, 2                 #; a2  = 0, (wrb) a1  <-- 0
22637000    22635        M 0x8000073c add a1, a1, s4                 #; a1  = 0, s4  = 0x800061c8, (wrb) a1  <-- 0x800061c8
22648000    22646        M 0x80000740 addi a2, a1, 64                #; a1  = 0x800061c8, (wrb) a2  <-- 0x80006208
22649000    22647        M 0x80000744 addi a3, a1, 128               #; a1  = 0x800061c8, (wrb) a3  <-- 0x80006248
22650000    22648        M 0x80000748 addi a4, a1, 192               #; a1  = 0x800061c8, (wrb) a4  <-- 0x80006288
22651000    22649        M 0x8000074c addi a5, a5, -2                #; a5  = 2, (wrb) a5  <-- 0
22652000    22650        M 0x80000750 srli a6, a0, 3                 #; a0  = 8, (wrb) a6  <-- 1
22653000    22651        M 0x80000754 andi a7, a6, 1                 #; a6  = 1, (wrb) a7  <-- 1
22654000    22652        M 0x80000758 slli a6, a7, 4                 #; a7  = 1, (wrb) a6  <-- 16
22655000    22653        M 0x8000075c slli a7, a7, 6                 #; a7  = 1, (wrb) a7  <-- 64
22656000    22654        M 0x80000760 add a7, a7, s1                 #; a7  = 64, s1  = 0x800060c8, (wrb) a7  <-- 0x80006108
22657000    22655        M 0x80000764 li t0, 28                      #; (wrb) t0  <-- 28
22658000    22656        M 0x80000768 mv t2, a7                      #; a7  = 0x80006108, (wrb) t2  <-- 0x80006108
22659000    22657        M 0x8000076c mv t3, a1                      #; a1  = 0x800061c8, (wrb) t3  <-- 0x800061c8
22660000    22658        M 0x80000770 p.lw t4, 4(t2!)                #; t2  = 0x80006108, t4  <~~ Word[0x8000610c]
22661000    22659        M 0x80000774 p.lw t5, t0(t2!)               #; t2  = 0x8000610c, t0  = 28, t5  <~~ Word[0x80006128]
22704000    22702        M 0x80000778 p.lw t6, 4(t2!)                #; t2  = 0x80006128, t6  <~~ Word[0x8000612c]
22712000    22710        M                                           #; (lsu) t4  <-- 3
22741000    22739        M 0x8000077c p.lw s1, 0(t2!)                #; t2  = 0x8000612c, s1  <~~ Word[0x8000612c]
22749000    22747        M                                           #; (lsu) t5  <-- 6
22785000    22783        M 0x80000780 p.lw s4, 4(t3!)                #; t3  = 0x800061c8, s4  <~~ Word[0x800061cc]
22793000    22791        M                                           #; (lsu) t6  <-- 4
22822000    22820        M 0x80000784 p.lw s5, t0(t3!)               #; t3  = 0x800061cc, t0  = 28, s5  <~~ Word[0x800061e8]
22830000    22828        M                                           #; (lsu) s1  <-- 8
22866000    22864        M 0x80000788 p.lw s6, 4(t3!)                #; t3  = 0x800061e8, s6  <~~ Word[0x800061ec]
22874000    22872        M                                           #; (lsu) s4  <-- 1
22903000    22901        M 0x8000078c p.lw s7, 0(t3!)                #; t3  = 0x800061ec, s7  <~~ Word[0x800061ec]
22904000    22902        M 0x80000790 mul t2, t4, s4                 #; t4  = 3, s4  = 1
22906000    22904        M                                           #; (acc) t2  <-- 3
22911000    22909        M                                           #; (lsu) s5  <-- 0
22955000    22953        M                                           #; (lsu) s6  <-- 0
22956000    22954        M 0x80000794 p.mac t2, t5, s6               #; t5  = 6, s6  = 0
22957000    22955        M 0x80000798 mul t3, t4, s5                 #; t4  = 3, s5  = 0
22958000    22956        M                                           #; (acc) t2  <-- 3
22959000    22957        M                                           #; (acc) t3  <-- 0
22992000    22990        M                                           #; (lsu) s7  <-- 1
22993000    22991        M 0x8000079c p.mac t3, t5, s7               #; t5  = 6, s7  = 1
22994000    22992        M 0x800007a0 mul t4, t6, s4                 #; t6  = 4, s4  = 1
22995000    22993        M 0x800007a4 addi t5, a7, 8                 #; a7  = 0x80006108, (wrb) t5  <-- 0x80006110
22996000    22994        M 0x800007a8 mv s4, a2                      #; a2  = 0x80006208, (wrb) s4  <-- 0x80006208
22997000    22995        M 0x800007ac mv a0, s0                      #; s0  = 0x80005fc8, (wrb) a0  <-- 0x80005fc8
22998000    22996        M 0x800007b0 p.lw s8, 4(t5!)                #; t5  = 0x80006110, s8  <~~ Word[0x80006114]
22999000    22997        M 0x800007b4 p.lw s9, t0(t5!)               #; t5  = 0x80006114, t0  = 28, s9  <~~ Word[0x80006130]
23000000    22998        M                                           #; (acc) t3  <-- 6
23001000    22999        M                                           #; (acc) t4  <-- 4
23028000    23026        M 0x800007b8 p.lw s10, 4(t5!)               #; t5  = 0x80006130, s10 <~~ Word[0x80006134]
23036000    23034        M                                           #; (lsu) s8  <-- 9
23065000    23063        M 0x800007bc p.lw s11, 0(t5!)               #; t5  = 0x80006134, s11 <~~ Word[0x80006134]
23073000    23071        M                                           #; (lsu) s9  <-- 12
23109000    23107        M 0x800007c0 p.lw ra, 4(s4!)                #; s4  = 0x80006208, ra  <~~ Word[0x8000620c]
23117000    23115        M                                           #; (lsu) s10 <-- 12
23146000    23144        M 0x800007c4 p.lw s2, t0(s4!)               #; s4  = 0x8000620c, t0  = 28, s2  <~~ Word[0x80006228]
23154000    23152        M                                           #; (lsu) s11 <-- 16
23190000    23188        M 0x800007c8 p.lw s0, 4(s4!)                #; s4  = 0x80006228, s0  <~~ Word[0x8000622c]
23198000    23196        M                                           #; (lsu) ra  <-- 0
23227000    23225        M 0x800007cc p.lw s3, 0(s4!)                #; s4  = 0x8000622c, s3  <~~ Word[0x8000622c]
23228000    23226        M 0x800007d0 p.mac t4, s1, s6               #; s1  = 8, s6  = 0
23229000    23227        M 0x800007d4 mul t5, t6, s5                 #; t6  = 4, s5  = 0
23230000    23228        M                                           #; (acc) t4  <-- 4
23231000    23229        M                                           #; (acc) t5  <-- 0
23232000    23230        M 0x800007d8 p.mac t5, s1, s7               #; s1  = 8, s7  = 1
23233000    23231        M 0x800007dc p.mac t2, s8, ra               #; s8  = 9, ra  = 0
23234000    23232        M                                           #; (acc) t5  <-- 8
23235000    23233        M                                           #; (lsu) s2  <-- 0
23236000    23234        M                                           #; (acc) t2  <-- 3
23279000    23277        M                                           #; (lsu) s0  <-- 0
23280000    23278        M 0x800007e0 p.mac t2, s9, s0               #; s9  = 12, s0  = 0
23281000    23279        M 0x800007e4 p.mac t3, s8, s2               #; s8  = 9, s2  = 0
23282000    23280        M                                           #; (acc) t2  <-- 3
23283000    23281        M                                           #; (acc) t3  <-- 6
23316000    23314        M                                           #; (lsu) s3  <-- 0
23317000    23315        M 0x800007e8 p.mac t3, s9, s3               #; s9  = 12, s3  = 0
23318000    23316        M 0x800007ec p.mac t4, s10, ra              #; s10 = 12, ra  = 0
23319000    23317        M 0x800007f0 addi t6, a7, 16                #; a7  = 0x80006108, (wrb) t6  <-- 0x80006118
23320000    23318        M 0x800007f4 mv s1, a3                      #; a3  = 0x80006248, (wrb) s1  <-- 0x80006248
23321000    23319        M 0x800007f8 p.lw s4, 4(t6!)                #; t6  = 0x80006118, s4  <~~ Word[0x8000611c]
23322000    23320        M 0x800007fc p.lw s5, t0(t6!)               #; t6  = 0x8000611c, t0  = 28, s5  <~~ Word[0x80006138]
23323000    23321        M                                           #; (acc) t3  <-- 6
23324000    23322        M                                           #; (acc) t4  <-- 4
23352000    23350        M 0x80000800 p.lw s6, 4(t6!)                #; t6  = 0x80006138, s6  <~~ Word[0x8000613c]
23360000    23358        M                                           #; (lsu) s4  <-- 15
23389000    23387        M 0x80000804 p.lw s7, 0(t6!)                #; t6  = 0x8000613c, s7  <~~ Word[0x8000613c]
23397000    23395        M                                           #; (lsu) s5  <-- 18
23433000    23431        M 0x80000808 p.lw s8, 4(s1!)                #; s1  = 0x80006248, s8  <~~ Word[0x8000624c]
23441000    23439        M                                           #; (lsu) s6  <-- 20
23470000    23468        M 0x8000080c p.lw s9, t0(s1!)               #; s1  = 0x8000624c, t0  = 28, s9  <~~ Word[0x80006268]
23478000    23476        M                                           #; (lsu) s7  <-- 24
23514000    23512        M 0x80000810 p.lw ra, 4(s1!)                #; s1  = 0x80006268, ra  <~~ Word[0x8000626c]
23522000    23520        M                                           #; (lsu) s8  <-- 0
23551000    23549        M 0x80000814 p.lw t1, 0(s1!)                #; s1  = 0x8000626c, t1  <~~ Word[0x8000626c]
23552000    23550        M 0x80000818 p.mac t4, s11, s0              #; s11 = 16, s0  = 0
23553000    23551        M 0x8000081c p.mac t5, s10, s2              #; s10 = 12, s2  = 0
23554000    23552        M                                           #; (acc) t4  <-- 4
23555000    23553        M                                           #; (acc) t5  <-- 8
23556000    23554        M 0x80000820 p.mac t5, s11, s3              #; s11 = 16, s3  = 0
23557000    23555        M 0x80000824 p.mac t2, s4, s8               #; s4  = 15, s8  = 0
23558000    23556        M                                           #; (acc) t5  <-- 8
23559000    23557        M                                           #; (lsu) s9  <-- 0
23560000    23558        M                                           #; (acc) t2  <-- 3
23603000    23601        M                                           #; (lsu) ra  <-- 0
23604000    23602        M 0x80000828 p.mac t2, s5, ra               #; s5  = 18, ra  = 0
23605000    23603        M 0x8000082c p.mac t3, s4, s9               #; s4  = 15, s9  = 0
23606000    23604        M 0x80000830 p.mac t4, s6, s8               #; s6  = 20, s8  = 0, (acc) t2  <-- 3
23607000    23605        M 0x80000834 p.mac t5, s6, s9               #; s6  = 20, s9  = 0, (acc) t3  <-- 6
23608000    23606        M 0x80000838 addi t6, a7, 24                #; a7  = 0x80006108, (wrb) t6  <-- 0x80006120
23609000    23607        M 0x8000083c mv s0, a4                      #; a4  = 0x80006288, (wrb) s0  <-- 0x80006288
23610000    23608        M                                           #; (acc) t4  <-- 4
23611000    23609        M                                           #; (acc) t5  <-- 8
23612000    23610        M 0x80000840 p.lw s1, 4(t6!)                #; t6  = 0x80006120, s1  <~~ Word[0x80006124]
23632000    23630        M 0x80000844 p.lw s2, t0(t6!)               #; t6  = 0x80006124, t0  = 28, s2  <~~ Word[0x80006140]
23640000    23638        M                                           #; (lsu) t1  <-- 0
23676000    23674        M 0x80000848 p.lw s3, 4(t6!)                #; t6  = 0x80006140, s3  <~~ Word[0x80006144]
23684000    23682        M                                           #; (lsu) s1  <-- 21
23713000    23711        M 0x8000084c p.lw s4, 0(t6!)                #; t6  = 0x80006144, s4  <~~ Word[0x80006144]
23721000    23719        M                                           #; (lsu) s2  <-- 24
23757000    23755        M 0x80000850 p.lw s6, 4(s0!)                #; s0  = 0x80006288, s6  <~~ Word[0x8000628c]
23765000    23763        M                                           #; (lsu) s3  <-- 28
23794000    23792        M 0x80000854 p.lw s8, t0(s0!)               #; s0  = 0x8000628c, t0  = 28, s8  <~~ Word[0x800062a8]
23802000    23800        M                                           #; (lsu) s4  <-- 32
23839000    23837        M 0x80000858 p.lw s9, 4(s0!)                #; s0  = 0x800062a8, s9  <~~ Word[0x800062ac]
23847000    23845        M                                           #; (lsu) s6  <-- 0
23884000    23882        M 0x8000085c p.lw s10, 0(s0!)               #; s0  = 0x800062ac, s10 <~~ Word[0x800062ac]
23885000    23883        M 0x80000860 mv s0, a0                      #; a0  = 0x80005fc8, (wrb) s0  <-- 0x80005fc8
23886000    23884        M 0x80000864 p.mac t3, s5, t1               #; s5  = 18, t1  = 0
23887000    23885        M 0x80000868 p.mac t4, s7, ra               #; s7  = 24, ra  = 0
23888000    23886        M 0x8000086c p.mac t5, s7, t1               #; s7  = 24, t1  = 0, (acc) t3  <-- 6
23889000    23887        M 0x80000870 p.mac t2, s1, s6               #; s1  = 21, s6  = 0, (acc) t4  <-- 4
23890000    23888        M                                           #; (acc) t5  <-- 8
23891000    23889        M                                           #; (acc) t2  <-- 3
23892000    23890        M                                           #; (lsu) s8  <-- 0
23937000    23935        M                                           #; (lsu) s9  <-- 0
23938000    23936        M 0x80000874 p.mac t2, s2, s9               #; s2  = 24, s9  = 0
23939000    23937        M 0x80000878 p.mac t3, s1, s8               #; s1  = 21, s8  = 0
23940000    23938        M                                           #; (acc) t2  <-- 3
23941000    23939        M                                           #; (acc) t3  <-- 6
23982000    23980        M                                           #; (lsu) s10 <-- 0
23983000    23981        M 0x8000087c p.mac t3, s2, s10              #; s2  = 24, s10 = 0
23985000    23983        M                                           #; (acc) t3  <-- 6
23986000    23984        M 0x80000880 p.mac t4, s3, s6               #; s3  = 28, s6  = 0
23988000    23986        M                                           #; (acc) t4  <-- 4
23989000    23987        M 0x80000884 p.mac t4, s4, s9               #; s4  = 32, s9  = 0
23990000    23988        M 0x80000888 p.mac t5, s3, s8               #; s3  = 28, s8  = 0
23991000    23989        M                                           #; (acc) t4  <-- 4
23992000    23990        M                                           #; (acc) t5  <-- 8
23993000    23991        M 0x8000088c p.mac t5, s4, s10              #; s4  = 32, s10 = 0
23994000    23992        M 0x80000890 lw a0, 24(sp)                  #; sp  = 0x1001deb8, a0  <~~ Word[0x1001ded0]
23995000    23993        M                                           #; (acc) t5  <-- 8
23997000    23995        M                                           #; (lsu) a0  <-- 0
23998000    23996        M 0x80000894 or t1, a0, a6                  #; a0  = 0, a6  = 16, (wrb) t1  <-- 16
23999000    23997        M 0x80000898 slli t1, t1, 2                 #; t1  = 16, (wrb) t1  <-- 64
24000000    23998        M 0x8000089c add t1, t1, s0                 #; t1  = 64, s0  = 0x80005fc8, (wrb) t1  <-- 0x80006008
24001000    23999        M 0x800008a0 p.sw t2, 4(t1!)                #; t1  = 0x80006008, 3 ~~> Word[0x8000600c]
24002000    24000        M 0x800008a4 p.sw t3, t0(t1!)               #; t1  = 0x8000600c, 6 ~~> Word[0x80006028]
24022000    24020        M 0x800008a8 p.sw t4, 4(t1!)                #; t1  = 0x80006028, 4 ~~> Word[0x8000602c]
24070000    24068        M 0x800008ac p.sw t5, 0(t1!)                #; t1  = 0x8000602c, 8 ~~> Word[0x8000602c]
24071000    24069        M 0x800008b0 addi a5, a5, 2                 #; a5  = 0, (wrb) a5  <-- 2
24072000    24070        M 0x800008b4 addi a6, a6, 16                #; a6  = 16, (wrb) a6  <-- 32
24073000    24071        M 0x800008b8 addi a7, a7, 64                #; a7  = 0x80006108, (wrb) a7  <-- 0x80006148
24074000    24072        M 0x800008bc li a0, 6                       #; (wrb) a0  <-- 6
24077000    24075        M 0x800008c0 bltu a5, a0, -344              #; a5  = 2, a0  = 6, taken, goto 0x80000768
24078000    24076        M 0x80000768 mv t2, a7                      #; a7  = 0x80006148, (wrb) t2  <-- 0x80006148
24079000    24077        M 0x8000076c mv t3, a1                      #; a1  = 0x800061c8, (wrb) t3  <-- 0x800061c8
24118000    24116        M 0x80000770 p.lw t4, 4(t2!)                #; t2  = 0x80006148, t4  <~~ Word[0x8000614c]
24166000    24164        M 0x80000774 p.lw t5, t0(t2!)               #; t2  = 0x8000614c, t0  = 28, t5  <~~ Word[0x80006168]
24211000    24209        M 0x80000778 p.lw t6, 4(t2!)                #; t2  = 0x80006168, t6  <~~ Word[0x8000616c]
24219000    24217        M                                           #; (lsu) t4  <-- 5
24248000    24246        M 0x8000077c p.lw s1, 0(t2!)                #; t2  = 0x8000616c, s1  <~~ Word[0x8000616c]
24256000    24254        M                                           #; (lsu) t5  <-- 10
24292000    24290        M 0x80000780 p.lw s4, 4(t3!)                #; t3  = 0x800061c8, s4  <~~ Word[0x800061cc]
24300000    24298        M                                           #; (lsu) t6  <-- 6
24329000    24327        M 0x80000784 p.lw s5, t0(t3!)               #; t3  = 0x800061cc, t0  = 28, s5  <~~ Word[0x800061e8]
24337000    24335        M                                           #; (lsu) s1  <-- 12
24373000    24371        M 0x80000788 p.lw s6, 4(t3!)                #; t3  = 0x800061e8, s6  <~~ Word[0x800061ec]
24381000    24379        M                                           #; (lsu) s4  <-- 1
24410000    24408        M 0x8000078c p.lw s7, 0(t3!)                #; t3  = 0x800061ec, s7  <~~ Word[0x800061ec]
24411000    24409        M 0x80000790 mul t2, t4, s4                 #; t4  = 5, s4  = 1
24413000    24411        M                                           #; (acc) t2  <-- 5
24418000    24416        M                                           #; (lsu) s5  <-- 0
24462000    24460        M                                           #; (lsu) s6  <-- 0
24463000    24461        M 0x80000794 p.mac t2, t5, s6               #; t5  = 10, s6  = 0
24464000    24462        M 0x80000798 mul t3, t4, s5                 #; t4  = 5, s5  = 0
24465000    24463        M                                           #; (acc) t2  <-- 5
24466000    24464        M                                           #; (acc) t3  <-- 0
24499000    24497        M                                           #; (lsu) s7  <-- 1
24500000    24498        M 0x8000079c p.mac t3, t5, s7               #; t5  = 10, s7  = 1
24501000    24499        M 0x800007a0 mul t4, t6, s4                 #; t6  = 6, s4  = 1
24502000    24500        M 0x800007a4 addi t5, a7, 8                 #; a7  = 0x80006148, (wrb) t5  <-- 0x80006150
24503000    24501        M 0x800007a8 mv s4, a2                      #; a2  = 0x80006208, (wrb) s4  <-- 0x80006208
24504000    24502        M 0x800007ac mv a0, s0                      #; s0  = 0x80005fc8, (wrb) a0  <-- 0x80005fc8
24505000    24503        M 0x800007b0 p.lw s8, 4(t5!)                #; t5  = 0x80006150, s8  <~~ Word[0x80006154]
24506000    24504        M 0x800007b4 p.lw s9, t0(t5!)               #; t5  = 0x80006154, t0  = 28, s9  <~~ Word[0x80006170]
24507000    24505        M                                           #; (acc) t3  <-- 10
24508000    24506        M                                           #; (acc) t4  <-- 6
24535000    24533        M 0x800007b8 p.lw s10, 4(t5!)               #; t5  = 0x80006170, s10 <~~ Word[0x80006174]
24543000    24541        M                                           #; (lsu) s8  <-- 15
24572000    24570        M 0x800007bc p.lw s11, 0(t5!)               #; t5  = 0x80006174, s11 <~~ Word[0x80006174]
24580000    24578        M                                           #; (lsu) s9  <-- 20
24616000    24614        M 0x800007c0 p.lw ra, 4(s4!)                #; s4  = 0x80006208, ra  <~~ Word[0x8000620c]
24624000    24622        M                                           #; (lsu) s10 <-- 18
24653000    24651        M 0x800007c4 p.lw s2, t0(s4!)               #; s4  = 0x8000620c, t0  = 28, s2  <~~ Word[0x80006228]
24661000    24659        M                                           #; (lsu) s11 <-- 24
24697000    24695        M 0x800007c8 p.lw s0, 4(s4!)                #; s4  = 0x80006228, s0  <~~ Word[0x8000622c]
24705000    24703        M                                           #; (lsu) ra  <-- 0
24734000    24732        M 0x800007cc p.lw s3, 0(s4!)                #; s4  = 0x8000622c, s3  <~~ Word[0x8000622c]
24735000    24733        M 0x800007d0 p.mac t4, s1, s6               #; s1  = 12, s6  = 0
24736000    24734        M 0x800007d4 mul t5, t6, s5                 #; t6  = 6, s5  = 0
24737000    24735        M                                           #; (acc) t4  <-- 6
24738000    24736        M                                           #; (acc) t5  <-- 0
24739000    24737        M 0x800007d8 p.mac t5, s1, s7               #; s1  = 12, s7  = 1
24740000    24738        M 0x800007dc p.mac t2, s8, ra               #; s8  = 15, ra  = 0
24741000    24739        M                                           #; (acc) t5  <-- 12
24742000    24740        M                                           #; (lsu) s2  <-- 0
24743000    24741        M                                           #; (acc) t2  <-- 5
24786000    24784        M                                           #; (lsu) s0  <-- 0
24787000    24785        M 0x800007e0 p.mac t2, s9, s0               #; s9  = 20, s0  = 0
24788000    24786        M 0x800007e4 p.mac t3, s8, s2               #; s8  = 15, s2  = 0
24789000    24787        M                                           #; (acc) t2  <-- 5
24790000    24788        M                                           #; (acc) t3  <-- 10
24823000    24821        M                                           #; (lsu) s3  <-- 0
24824000    24822        M 0x800007e8 p.mac t3, s9, s3               #; s9  = 20, s3  = 0
24825000    24823        M 0x800007ec p.mac t4, s10, ra              #; s10 = 18, ra  = 0
24826000    24824        M 0x800007f0 addi t6, a7, 16                #; a7  = 0x80006148, (wrb) t6  <-- 0x80006158
24827000    24825        M 0x800007f4 mv s1, a3                      #; a3  = 0x80006248, (wrb) s1  <-- 0x80006248
24828000    24826        M 0x800007f8 p.lw s4, 4(t6!)                #; t6  = 0x80006158, s4  <~~ Word[0x8000615c]
24829000    24827        M 0x800007fc p.lw s5, t0(t6!)               #; t6  = 0x8000615c, t0  = 28, s5  <~~ Word[0x80006178]
24830000    24828        M                                           #; (acc) t3  <-- 10
24831000    24829        M                                           #; (acc) t4  <-- 6
24859000    24857        M 0x80000800 p.lw s6, 4(t6!)                #; t6  = 0x80006178, s6  <~~ Word[0x8000617c]
24867000    24865        M                                           #; (lsu) s4  <-- 25
24896000    24894        M 0x80000804 p.lw s7, 0(t6!)                #; t6  = 0x8000617c, s7  <~~ Word[0x8000617c]
24904000    24902        M                                           #; (lsu) s5  <-- 30
24940000    24938        M 0x80000808 p.lw s8, 4(s1!)                #; s1  = 0x80006248, s8  <~~ Word[0x8000624c]
24948000    24946        M                                           #; (lsu) s6  <-- 30
24977000    24975        M 0x8000080c p.lw s9, t0(s1!)               #; s1  = 0x8000624c, t0  = 28, s9  <~~ Word[0x80006268]
24985000    24983        M                                           #; (lsu) s7  <-- 36
25021000    25019        M 0x80000810 p.lw ra, 4(s1!)                #; s1  = 0x80006268, ra  <~~ Word[0x8000626c]
25029000    25027        M                                           #; (lsu) s8  <-- 0
25058000    25056        M 0x80000814 p.lw t1, 0(s1!)                #; s1  = 0x8000626c, t1  <~~ Word[0x8000626c]
25059000    25057        M 0x80000818 p.mac t4, s11, s0              #; s11 = 24, s0  = 0
25060000    25058        M 0x8000081c p.mac t5, s10, s2              #; s10 = 18, s2  = 0
25061000    25059        M                                           #; (acc) t4  <-- 6
25062000    25060        M                                           #; (acc) t5  <-- 12
25063000    25061        M 0x80000820 p.mac t5, s11, s3              #; s11 = 24, s3  = 0
25064000    25062        M 0x80000824 p.mac t2, s4, s8               #; s4  = 25, s8  = 0
25065000    25063        M                                           #; (acc) t5  <-- 12
25066000    25064        M                                           #; (lsu) s9  <-- 0
25067000    25065        M                                           #; (acc) t2  <-- 5
25110000    25108        M                                           #; (lsu) ra  <-- 0
25111000    25109        M 0x80000828 p.mac t2, s5, ra               #; s5  = 30, ra  = 0
25112000    25110        M 0x8000082c p.mac t3, s4, s9               #; s4  = 25, s9  = 0
25113000    25111        M 0x80000830 p.mac t4, s6, s8               #; s6  = 30, s8  = 0, (acc) t2  <-- 5
25114000    25112        M 0x80000834 p.mac t5, s6, s9               #; s6  = 30, s9  = 0, (acc) t3  <-- 10
25115000    25113        M 0x80000838 addi t6, a7, 24                #; a7  = 0x80006148, (wrb) t6  <-- 0x80006160
25116000    25114        M 0x8000083c mv s0, a4                      #; a4  = 0x80006288, (wrb) s0  <-- 0x80006288
25117000    25115        M 0x80000840 p.lw s1, 4(t6!)                #; t6  = 0x80006160, s1  <~~ Word[0x80006164]
25118000    25116        M                                           #; (acc) t4  <-- 6
25119000    25117        M                                           #; (acc) t5  <-- 12
25139000    25137        M 0x80000844 p.lw s2, t0(t6!)               #; t6  = 0x80006164, t0  = 28, s2  <~~ Word[0x80006180]
25147000    25145        M                                           #; (lsu) t1  <-- 0
25183000    25181        M 0x80000848 p.lw s3, 4(t6!)                #; t6  = 0x80006180, s3  <~~ Word[0x80006184]
25191000    25189        M                                           #; (lsu) s1  <-- 35
25220000    25218        M 0x8000084c p.lw s4, 0(t6!)                #; t6  = 0x80006184, s4  <~~ Word[0x80006184]
25228000    25226        M                                           #; (lsu) s2  <-- 40
25264000    25262        M 0x80000850 p.lw s6, 4(s0!)                #; s0  = 0x80006288, s6  <~~ Word[0x8000628c]
25272000    25270        M                                           #; (lsu) s3  <-- 42
25309000    25307        M 0x80000854 p.lw s8, t0(s0!)               #; s0  = 0x8000628c, t0  = 28, s8  <~~ Word[0x800062a8]
25317000    25315        M                                           #; (lsu) s4  <-- 48
25354000    25352        M 0x80000858 p.lw s9, 4(s0!)                #; s0  = 0x800062a8, s9  <~~ Word[0x800062ac]
25362000    25360        M                                           #; (lsu) s6  <-- 0
25399000    25397        M 0x8000085c p.lw s10, 0(s0!)               #; s0  = 0x800062ac, s10 <~~ Word[0x800062ac]
25400000    25398        M 0x80000860 mv s0, a0                      #; a0  = 0x80005fc8, (wrb) s0  <-- 0x80005fc8
25401000    25399        M 0x80000864 p.mac t3, s5, t1               #; s5  = 30, t1  = 0
25402000    25400        M 0x80000868 p.mac t4, s7, ra               #; s7  = 36, ra  = 0
25403000    25401        M 0x8000086c p.mac t5, s7, t1               #; s7  = 36, t1  = 0, (acc) t3  <-- 10
25404000    25402        M 0x80000870 p.mac t2, s1, s6               #; s1  = 35, s6  = 0, (acc) t4  <-- 6
25405000    25403        M                                           #; (acc) t5  <-- 12
25406000    25404        M                                           #; (acc) t2  <-- 5
25407000    25405        M                                           #; (lsu) s8  <-- 0
25452000    25450        M                                           #; (lsu) s9  <-- 0
25453000    25451        M 0x80000874 p.mac t2, s2, s9               #; s2  = 40, s9  = 0
25454000    25452        M 0x80000878 p.mac t3, s1, s8               #; s1  = 35, s8  = 0
25455000    25453        M                                           #; (acc) t2  <-- 5
25456000    25454        M                                           #; (acc) t3  <-- 10
25496000    25494        M                                           #; (lsu) s10 <-- 0
25497000    25495        M 0x8000087c p.mac t3, s2, s10              #; s2  = 40, s10 = 0
25498000    25496        M 0x80000880 p.mac t4, s3, s6               #; s3  = 42, s6  = 0
25499000    25497        M                                           #; (acc) t3  <-- 10
25500000    25498        M                                           #; (acc) t4  <-- 6
25501000    25499        M 0x80000884 p.mac t4, s4, s9               #; s4  = 48, s9  = 0
25502000    25500        M 0x80000888 p.mac t5, s3, s8               #; s3  = 42, s8  = 0
25503000    25501        M                                           #; (acc) t4  <-- 6
25504000    25502        M                                           #; (acc) t5  <-- 12
25505000    25503        M 0x8000088c p.mac t5, s4, s10              #; s4  = 48, s10 = 0
25506000    25504        M 0x80000890 lw a0, 24(sp)                  #; sp  = 0x1001deb8, a0  <~~ Word[0x1001ded0]
25507000    25505        M                                           #; (acc) t5  <-- 12
25509000    25507        M                                           #; (lsu) a0  <-- 0
25510000    25508        M 0x80000894 or t1, a0, a6                  #; a0  = 0, a6  = 32, (wrb) t1  <-- 32
25511000    25509        M 0x80000898 slli t1, t1, 2                 #; t1  = 32, (wrb) t1  <-- 128
25512000    25510        M 0x8000089c add t1, t1, s0                 #; t1  = 128, s0  = 0x80005fc8, (wrb) t1  <-- 0x80006048
25513000    25511        M 0x800008a0 p.sw t2, 4(t1!)                #; t1  = 0x80006048, 5 ~~> Word[0x8000604c]
25514000    25512        M 0x800008a4 p.sw t3, t0(t1!)               #; t1  = 0x8000604c, 10 ~~> Word[0x80006068]
25528000    25526        M 0x800008a8 p.sw t4, 4(t1!)                #; t1  = 0x80006068, 6 ~~> Word[0x8000606c]
25576000    25574        M 0x800008ac p.sw t5, 0(t1!)                #; t1  = 0x8000606c, 12 ~~> Word[0x8000606c]
25577000    25575        M 0x800008b0 addi a5, a5, 2                 #; a5  = 2, (wrb) a5  <-- 4
25578000    25576        M 0x800008b4 addi a6, a6, 16                #; a6  = 32, (wrb) a6  <-- 48
25579000    25577        M 0x800008b8 addi a7, a7, 64                #; a7  = 0x80006148, (wrb) a7  <-- 0x80006188
25580000    25578        M 0x800008bc li a0, 6                       #; (wrb) a0  <-- 6
25581000    25579        M 0x800008c0 bltu a5, a0, -344              #; a5  = 4, a0  = 6, taken, goto 0x80000768
25582000    25580        M 0x80000768 mv t2, a7                      #; a7  = 0x80006188, (wrb) t2  <-- 0x80006188
25583000    25581        M 0x8000076c mv t3, a1                      #; a1  = 0x800061c8, (wrb) t3  <-- 0x800061c8
25624000    25622        M 0x80000770 p.lw t4, 4(t2!)                #; t2  = 0x80006188, t4  <~~ Word[0x8000618c]
25672000    25670        M 0x80000774 p.lw t5, t0(t2!)               #; t2  = 0x8000618c, t0  = 28, t5  <~~ Word[0x800061a8]
25717000    25715        M 0x80000778 p.lw t6, 4(t2!)                #; t2  = 0x800061a8, t6  <~~ Word[0x800061ac]
25725000    25723        M                                           #; (lsu) t4  <-- 7
25754000    25752        M 0x8000077c p.lw s1, 0(t2!)                #; t2  = 0x800061ac, s1  <~~ Word[0x800061ac]
25762000    25760        M                                           #; (lsu) t5  <-- 14
25798000    25796        M 0x80000780 p.lw s4, 4(t3!)                #; t3  = 0x800061c8, s4  <~~ Word[0x800061cc]
25806000    25804        M                                           #; (lsu) t6  <-- 8
25835000    25833        M 0x80000784 p.lw s5, t0(t3!)               #; t3  = 0x800061cc, t0  = 28, s5  <~~ Word[0x800061e8]
25843000    25841        M                                           #; (lsu) s1  <-- 16
25879000    25877        M 0x80000788 p.lw s6, 4(t3!)                #; t3  = 0x800061e8, s6  <~~ Word[0x800061ec]
25887000    25885        M                                           #; (lsu) s4  <-- 1
25916000    25914        M 0x8000078c p.lw s7, 0(t3!)                #; t3  = 0x800061ec, s7  <~~ Word[0x800061ec]
25917000    25915        M 0x80000790 mul t2, t4, s4                 #; t4  = 7, s4  = 1
25919000    25917        M                                           #; (acc) t2  <-- 7
25924000    25922        M                                           #; (lsu) s5  <-- 0
25968000    25966        M                                           #; (lsu) s6  <-- 0
25969000    25967        M 0x80000794 p.mac t2, t5, s6               #; t5  = 14, s6  = 0
25970000    25968        M 0x80000798 mul t3, t4, s5                 #; t4  = 7, s5  = 0
25971000    25969        M                                           #; (acc) t2  <-- 7
25972000    25970        M                                           #; (acc) t3  <-- 0
26005000    26003        M                                           #; (lsu) s7  <-- 1
26006000    26004        M 0x8000079c p.mac t3, t5, s7               #; t5  = 14, s7  = 1
26007000    26005        M 0x800007a0 mul t4, t6, s4                 #; t6  = 8, s4  = 1
26008000    26006        M 0x800007a4 addi t5, a7, 8                 #; a7  = 0x80006188, (wrb) t5  <-- 0x80006190
26009000    26007        M 0x800007a8 mv s4, a2                      #; a2  = 0x80006208, (wrb) s4  <-- 0x80006208
26010000    26008        M 0x800007ac mv a0, s0                      #; s0  = 0x80005fc8, (wrb) a0  <-- 0x80005fc8
26011000    26009        M 0x800007b0 p.lw s8, 4(t5!)                #; t5  = 0x80006190, s8  <~~ Word[0x80006194]
26012000    26010        M 0x800007b4 p.lw s9, t0(t5!)               #; t5  = 0x80006194, t0  = 28, s9  <~~ Word[0x800061b0]
26013000    26011        M                                           #; (acc) t3  <-- 14
26014000    26012        M                                           #; (acc) t4  <-- 8
26041000    26039        M 0x800007b8 p.lw s10, 4(t5!)               #; t5  = 0x800061b0, s10 <~~ Word[0x800061b4]
26049000    26047        M                                           #; (lsu) s8  <-- 21
26078000    26076        M 0x800007bc p.lw s11, 0(t5!)               #; t5  = 0x800061b4, s11 <~~ Word[0x800061b4]
26086000    26084        M                                           #; (lsu) s9  <-- 28
26122000    26120        M 0x800007c0 p.lw ra, 4(s4!)                #; s4  = 0x80006208, ra  <~~ Word[0x8000620c]
26130000    26128        M                                           #; (lsu) s10 <-- 24
26159000    26157        M 0x800007c4 p.lw s2, t0(s4!)               #; s4  = 0x8000620c, t0  = 28, s2  <~~ Word[0x80006228]
26167000    26165        M                                           #; (lsu) s11 <-- 32
26203000    26201        M 0x800007c8 p.lw s0, 4(s4!)                #; s4  = 0x80006228, s0  <~~ Word[0x8000622c]
26211000    26209        M                                           #; (lsu) ra  <-- 0
26240000    26238        M 0x800007cc p.lw s3, 0(s4!)                #; s4  = 0x8000622c, s3  <~~ Word[0x8000622c]
26241000    26239        M 0x800007d0 p.mac t4, s1, s6               #; s1  = 16, s6  = 0
26242000    26240        M 0x800007d4 mul t5, t6, s5                 #; t6  = 8, s5  = 0
26243000    26241        M                                           #; (acc) t4  <-- 8
26244000    26242        M                                           #; (acc) t5  <-- 0
26245000    26243        M 0x800007d8 p.mac t5, s1, s7               #; s1  = 16, s7  = 1
26246000    26244        M 0x800007dc p.mac t2, s8, ra               #; s8  = 21, ra  = 0
26247000    26245        M                                           #; (acc) t5  <-- 16
26248000    26246        M                                           #; (lsu) s2  <-- 0
26249000    26247        M                                           #; (acc) t2  <-- 7
26292000    26290        M                                           #; (lsu) s0  <-- 0
26293000    26291        M 0x800007e0 p.mac t2, s9, s0               #; s9  = 28, s0  = 0
26294000    26292        M 0x800007e4 p.mac t3, s8, s2               #; s8  = 21, s2  = 0
26295000    26293        M                                           #; (acc) t2  <-- 7
26296000    26294        M                                           #; (acc) t3  <-- 14
26329000    26327        M                                           #; (lsu) s3  <-- 0
26330000    26328        M 0x800007e8 p.mac t3, s9, s3               #; s9  = 28, s3  = 0
26331000    26329        M 0x800007ec p.mac t4, s10, ra              #; s10 = 24, ra  = 0
26332000    26330        M 0x800007f0 addi t6, a7, 16                #; a7  = 0x80006188, (wrb) t6  <-- 0x80006198
26333000    26331        M 0x800007f4 mv s1, a3                      #; a3  = 0x80006248, (wrb) s1  <-- 0x80006248
26334000    26332        M 0x800007f8 p.lw s4, 4(t6!)                #; t6  = 0x80006198, s4  <~~ Word[0x8000619c]
26335000    26333        M 0x800007fc p.lw s5, t0(t6!)               #; t6  = 0x8000619c, t0  = 28, s5  <~~ Word[0x800061b8]
26336000    26334        M                                           #; (acc) t3  <-- 14
26337000    26335        M                                           #; (acc) t4  <-- 8
26365000    26363        M 0x80000800 p.lw s6, 4(t6!)                #; t6  = 0x800061b8, s6  <~~ Word[0x800061bc]
26373000    26371        M                                           #; (lsu) s4  <-- 35
26402000    26400        M 0x80000804 p.lw s7, 0(t6!)                #; t6  = 0x800061bc, s7  <~~ Word[0x800061bc]
26410000    26408        M                                           #; (lsu) s5  <-- 42
26446000    26444        M 0x80000808 p.lw s8, 4(s1!)                #; s1  = 0x80006248, s8  <~~ Word[0x8000624c]
26454000    26452        M                                           #; (lsu) s6  <-- 40
26483000    26481        M 0x8000080c p.lw s9, t0(s1!)               #; s1  = 0x8000624c, t0  = 28, s9  <~~ Word[0x80006268]
26491000    26489        M                                           #; (lsu) s7  <-- 48
26527000    26525        M 0x80000810 p.lw ra, 4(s1!)                #; s1  = 0x80006268, ra  <~~ Word[0x8000626c]
26535000    26533        M                                           #; (lsu) s8  <-- 0
26564000    26562        M 0x80000814 p.lw t1, 0(s1!)                #; s1  = 0x8000626c, t1  <~~ Word[0x8000626c]
26565000    26563        M 0x80000818 p.mac t4, s11, s0              #; s11 = 32, s0  = 0
26566000    26564        M 0x8000081c p.mac t5, s10, s2              #; s10 = 24, s2  = 0
26567000    26565        M                                           #; (acc) t4  <-- 8
26568000    26566        M                                           #; (acc) t5  <-- 16
26569000    26567        M 0x80000820 p.mac t5, s11, s3              #; s11 = 32, s3  = 0
26570000    26568        M 0x80000824 p.mac t2, s4, s8               #; s4  = 35, s8  = 0
26571000    26569        M                                           #; (acc) t5  <-- 16
26572000    26570        M                                           #; (lsu) s9  <-- 0
26573000    26571        M                                           #; (acc) t2  <-- 7
26616000    26614        M                                           #; (lsu) ra  <-- 0
26617000    26615        M 0x80000828 p.mac t2, s5, ra               #; s5  = 42, ra  = 0
26618000    26616        M 0x8000082c p.mac t3, s4, s9               #; s4  = 35, s9  = 0
26619000    26617        M 0x80000830 p.mac t4, s6, s8               #; s6  = 40, s8  = 0, (acc) t2  <-- 7
26620000    26618        M 0x80000834 p.mac t5, s6, s9               #; s6  = 40, s9  = 0, (acc) t3  <-- 14
26621000    26619        M 0x80000838 addi t6, a7, 24                #; a7  = 0x80006188, (wrb) t6  <-- 0x800061a0
26622000    26620        M 0x8000083c mv s0, a4                      #; a4  = 0x80006288, (wrb) s0  <-- 0x80006288
26623000    26621        M 0x80000840 p.lw s1, 4(t6!)                #; t6  = 0x800061a0, s1  <~~ Word[0x800061a4]
26624000    26622        M                                           #; (acc) t4  <-- 8
26625000    26623        M                                           #; (acc) t5  <-- 16
26645000    26643        M 0x80000844 p.lw s2, t0(t6!)               #; t6  = 0x800061a4, t0  = 28, s2  <~~ Word[0x800061c0]
26653000    26651        M                                           #; (lsu) t1  <-- 0
26689000    26687        M 0x80000848 p.lw s3, 4(t6!)                #; t6  = 0x800061c0, s3  <~~ Word[0x800061c4]
26697000    26695        M                                           #; (lsu) s1  <-- 49
26726000    26724        M 0x8000084c p.lw s4, 0(t6!)                #; t6  = 0x800061c4, s4  <~~ Word[0x800061c4]
26734000    26732        M                                           #; (lsu) s2  <-- 56
26770000    26768        M 0x80000850 p.lw s6, 4(s0!)                #; s0  = 0x80006288, s6  <~~ Word[0x8000628c]
26778000    26776        M                                           #; (lsu) s3  <-- 56
26815000    26813        M 0x80000854 p.lw s8, t0(s0!)               #; s0  = 0x8000628c, t0  = 28, s8  <~~ Word[0x800062a8]
26823000    26821        M                                           #; (lsu) s4  <-- 64
26860000    26858        M 0x80000858 p.lw s9, 4(s0!)                #; s0  = 0x800062a8, s9  <~~ Word[0x800062ac]
26868000    26866        M                                           #; (lsu) s6  <-- 0
26905000    26903        M 0x8000085c p.lw s10, 0(s0!)               #; s0  = 0x800062ac, s10 <~~ Word[0x800062ac]
26906000    26904        M 0x80000860 mv s0, a0                      #; a0  = 0x80005fc8, (wrb) s0  <-- 0x80005fc8
26907000    26905        M 0x80000864 p.mac t3, s5, t1               #; s5  = 42, t1  = 0
26908000    26906        M 0x80000868 p.mac t4, s7, ra               #; s7  = 48, ra  = 0
26909000    26907        M 0x8000086c p.mac t5, s7, t1               #; s7  = 48, t1  = 0, (acc) t3  <-- 14
26910000    26908        M 0x80000870 p.mac t2, s1, s6               #; s1  = 49, s6  = 0, (acc) t4  <-- 8
26911000    26909        M                                           #; (acc) t5  <-- 16
26912000    26910        M                                           #; (acc) t2  <-- 7
26913000    26911        M                                           #; (lsu) s8  <-- 0
26958000    26956        M                                           #; (lsu) s9  <-- 0
26959000    26957        M 0x80000874 p.mac t2, s2, s9               #; s2  = 56, s9  = 0
26960000    26958        M 0x80000878 p.mac t3, s1, s8               #; s1  = 49, s8  = 0
26961000    26959        M                                           #; (acc) t2  <-- 7
26962000    26960        M                                           #; (acc) t3  <-- 14
27002000    27000        M                                           #; (lsu) s10 <-- 0
27003000    27001        M 0x8000087c p.mac t3, s2, s10              #; s2  = 56, s10 = 0
27004000    27002        M 0x80000880 p.mac t4, s3, s6               #; s3  = 56, s6  = 0
27005000    27003        M                                           #; (acc) t3  <-- 14
27006000    27004        M                                           #; (acc) t4  <-- 8
27007000    27005        M 0x80000884 p.mac t4, s4, s9               #; s4  = 64, s9  = 0
27008000    27006        M 0x80000888 p.mac t5, s3, s8               #; s3  = 56, s8  = 0
27009000    27007        M                                           #; (acc) t4  <-- 8
27010000    27008        M                                           #; (acc) t5  <-- 16
27011000    27009        M 0x8000088c p.mac t5, s4, s10              #; s4  = 64, s10 = 0
27012000    27010        M 0x80000890 lw a0, 24(sp)                  #; sp  = 0x1001deb8, a0  <~~ Word[0x1001ded0]
27013000    27011        M                                           #; (acc) t5  <-- 16
27015000    27013        M                                           #; (lsu) a0  <-- 0
27016000    27014        M 0x80000894 or t1, a0, a6                  #; a0  = 0, a6  = 48, (wrb) t1  <-- 48
27017000    27015        M 0x80000898 slli t1, t1, 2                 #; t1  = 48, (wrb) t1  <-- 192
27018000    27016        M 0x8000089c add t1, t1, s0                 #; t1  = 192, s0  = 0x80005fc8, (wrb) t1  <-- 0x80006088
27019000    27017        M 0x800008a0 p.sw t2, 4(t1!)                #; t1  = 0x80006088, 7 ~~> Word[0x8000608c]
27020000    27018        M 0x800008a4 p.sw t3, t0(t1!)               #; t1  = 0x8000608c, 14 ~~> Word[0x800060a8]
27034000    27032        M 0x800008a8 p.sw t4, 4(t1!)                #; t1  = 0x800060a8, 8 ~~> Word[0x800060ac]
27082000    27080        M 0x800008ac p.sw t5, 0(t1!)                #; t1  = 0x800060ac, 16 ~~> Word[0x800060ac]
27083000    27081        M 0x800008b0 addi a5, a5, 2                 #; a5  = 4, (wrb) a5  <-- 6
27084000    27082        M 0x800008b4 addi a6, a6, 16                #; a6  = 48, (wrb) a6  <-- 64
27085000    27083        M 0x800008b8 addi a7, a7, 64                #; a7  = 0x80006188, (wrb) a7  <-- 0x800061c8
27086000    27084        M 0x800008bc li a0, 6                       #; (wrb) a0  <-- 6
27087000    27085        M 0x800008c0 bltu a5, a0, -344              #; a5  = 6, a0  = 6, not taken
27088000    27086        M 0x800008c4 j 1152                         #; goto 0x80000d44
27091000    27089        M 0x80000d44 csrr zero, 1986                #; csr@7c2 = 0
28435000    28433        M 0x80000d48 lw a0, 20(sp)                  #; sp  = 0x1001deb8, a0  <~~ Word[0x1001decc]
28438000    28436        M                                           #; (lsu) a0  <-- 8
28439000    28437        M 0x80000d4c bnez a0, 584                   #; a0  = 8, taken, goto 0x80000f94
28450000    28448        M 0x80000f94 csrr zero, 1986                #; csr@7c2 = 0
45700000    45698        M 0x80000f98 li a0, 0                       #; (wrb) a0  <-- 0
45701000    45699        M 0x80000f9c lw ra, 76(sp)                  #; sp  = 0x1001deb8, ra  <~~ Word[0x1001df04]
45702000    45700        M 0x80000fa0 lw s0, 72(sp)                  #; sp  = 0x1001deb8, s0  <~~ Word[0x1001df00]
45703000    45701        M 0x80000fa4 lw s1, 68(sp)                  #; sp  = 0x1001deb8, s1  <~~ Word[0x1001defc]
45704000    45702        M 0x80000fa8 lw s2, 64(sp)                  #; sp  = 0x1001deb8, s2  <~~ Word[0x1001def8], (lsu) ra  <-- 0x8000418c
45705000    45703        M 0x80000fac lw s3, 60(sp)                  #; sp  = 0x1001deb8, s3  <~~ Word[0x1001def4], (lsu) s0  <-- 0x1001df48
45706000    45704        M 0x80000fb0 lw s4, 56(sp)                  #; sp  = 0x1001deb8, s4  <~~ Word[0x1001def0], (lsu) s1  <-- 2064
45707000    45705        M 0x80000fb4 lw s5, 52(sp)                  #; sp  = 0x1001deb8, s5  <~~ Word[0x1001deec], (lsu) s2  <-- 8
45708000    45706        M 0x80000fb8 lw s6, 48(sp)                  #; sp  = 0x1001deb8, s6  <~~ Word[0x1001dee8], (lsu) s3  <-- 0
45709000    45707        M 0x80000fbc lw s7, 44(sp)                  #; sp  = 0x1001deb8, s7  <~~ Word[0x1001dee4], (lsu) s4  <-- 0
45710000    45708        M                                           #; (lsu) s5  <-- 8
45711000    45709        M                                           #; (lsu) s6  <-- 0x80005ed8
45712000    45710        M                                           #; (lsu) s7  <-- 0x80005ed8
45720000    45718        M 0x80000fc0 lw s8, 40(sp)                  #; sp  = 0x1001deb8, s8  <~~ Word[0x1001dee0]
45721000    45719        M 0x80000fc4 lw s9, 36(sp)                  #; sp  = 0x1001deb8, s9  <~~ Word[0x1001dedc]
45722000    45720        M 0x80000fc8 lw s10, 32(sp)                 #; sp  = 0x1001deb8, s10 <~~ Word[0x1001ded8]
45723000    45721        M 0x80000fcc lw s11, 28(sp)                 #; sp  = 0x1001deb8, s11 <~~ Word[0x1001ded4], (lsu) s8  <-- 0x80005ef8
45724000    45722        M 0x80000fd0 addi sp, sp, 80                #; sp  = 0x1001deb8, (wrb) sp  <-- 0x1001df08
45725000    45723        M 0x80000fd4 ret                            #; ra  = 0x8000418c, (lsu) s9  <-- 6192, goto 0x8000418c
45726000    45724        M                                           #; (lsu) s10 <-- 7224
45727000    45725        M                                           #; (lsu) s11 <-- 8256
45728000    45726        M 0x8000418c csrr zero, 1986                #; csr@7c2 = 0
45738000    45736        M 0x80004190 lw a1, 64(s0)                  #; s0  = 0x1001df48, a1  <~~ Word[0x1001df88]
45741000    45739        M                                           #; (lsu) a1  <-- 0x1001ffe0
45742000    45740        M 0x80004194 addi a2, a1, 4                 #; a1  = 0x1001ffe0, (wrb) a2  <-- 0x1001ffe4
45743000    45741        M 0x80004198 amoadd.w a0, a0, (a2)          #; a2  = 0x1001ffe4, a0  = 0, a0  <~~ Word[0x1001ffe4]
45752000    45750        M                                           #; (lsu) a0  <-- 0
45753000    45751        M 0x8000419c mv a0, a0                      #; a0  = 0, (wrb) a0  <-- 0
45754000    45752        M 0x800041a0 csrr zero, 1986                #; csr@7c2 = 0
45774000    45772        M 0x800041a4 beqz s4, 72                    #; s4  = 0, taken, goto 0x800041ec
45785000    45783        M 0x800041ec csrr zero, 1986                #; csr@7c2 = 0
45787000    45785        M 0x800041f0 csrr zero, 1986                #; csr@7c2 = 0
45789000    45787        M 0x800041f4 csrr zero, 1986                #; csr@7c2 = 0
45810000    45808        M 0x800041f8 lw ra, 60(sp)                  #; sp  = 0x1001df08, ra  <~~ Word[0x1001df44]
45811000    45809        M 0x800041fc lw s0, 56(sp)                  #; sp  = 0x1001df08, s0  <~~ Word[0x1001df40]
45813000    45811        M                                           #; (lsu) ra  <-- 0x800001c4
45814000    45812        M                                           #; (lsu) s0  <-- 0
45821000    45819        M 0x80004200 lw s1, 52(sp)                  #; sp  = 0x1001df08, s1  <~~ Word[0x1001df3c]
45822000    45820        M 0x80004204 lw s2, 48(sp)                  #; sp  = 0x1001df08, s2  <~~ Word[0x1001df38]
45823000    45821        M 0x80004208 lw s3, 44(sp)                  #; sp  = 0x1001df08, s3  <~~ Word[0x1001df34]
45824000    45822        M 0x8000420c lw s4, 40(sp)                  #; sp  = 0x1001df08, s4  <~~ Word[0x1001df30], (lsu) s1  <-- 0
45825000    45823        M 0x80004210 lw s5, 36(sp)                  #; sp  = 0x1001df08, s5  <~~ Word[0x1001df2c], (lsu) s2  <-- 0
45826000    45824        M 0x80004214 lw s6, 32(sp)                  #; sp  = 0x1001df08, s6  <~~ Word[0x1001df28], (lsu) s3  <-- 0
45827000    45825        M 0x80004218 lw s7, 28(sp)                  #; sp  = 0x1001df08, s7  <~~ Word[0x1001df24], (lsu) s4  <-- 0
45828000    45826        M 0x8000421c lw s8, 24(sp)                  #; sp  = 0x1001df08, s8  <~~ Word[0x1001df20], (lsu) s5  <-- 0
45829000    45827        M 0x80004220 lw s9, 20(sp)                  #; sp  = 0x1001df08, s9  <~~ Word[0x1001df1c], (lsu) s6  <-- 0
45830000    45828        M 0x80004224 lw s10, 16(sp)                 #; sp  = 0x1001df08, s10 <~~ Word[0x1001df18], (lsu) s7  <-- 0
45831000    45829        M 0x80004228 lw s11, 12(sp)                 #; sp  = 0x1001df08, s11 <~~ Word[0x1001df14], (lsu) s8  <-- 0
45832000    45830        M 0x8000422c addi sp, sp, 64                #; sp  = 0x1001df08, (wrb) sp  <-- 0x1001df48
45833000    45831        M 0x80004230 ret                            #; ra  = 0x800001c4, (lsu) s9  <-- 0, goto 0x800001c4
45834000    45832        M                                           #; (lsu) s10 <-- 0
45835000    45833        M                                           #; (lsu) s11 <-- 0
45840000    45838        M 0x800001c4 wfi                            #; 

## Performance metrics

Performance metrics for section 0 @ (20, 45838):
tstart                                          22
snitch_loads                                   197
snitch_stores                                  575
tend                                         45840
fpss_loads                                       0
snitch_avg_load_latency                      44.35
snitch_occupancy                           0.04502
snitch_fseq_rel_offloads                   0.01527
fseq_yield                                     1.0
fseq_fpu_yield                                 1.0
fpss_section_latency                             0
fpss_avg_fpu_latency                           2.0
fpss_avg_load_latency                            0
fpss_occupancy                           0.0006984
fpss_fpu_occupancy                       0.0006984
fpss_fpu_rel_occupancy                         1.0
cycles                                       45819
total_ipc                                  0.04572
